
c:/Users/alext/gitRepositories/IoT-Breathalyzer/target/3.3.0/photon/IoT-Breathalyzer.elf:     file format elf32-littlearm

Sections:
Idx Name          Size      VMA       LMA       File off  Algn
  0 .module_info  00000018  080a0000  080a0000  00010000  2**0
                  CONTENTS, ALLOC, LOAD, READONLY, DATA
  1 .dynalib      00000004  080a0018  080a0018  00010018  2**2
                  CONTENTS, ALLOC, LOAD, READONLY, DATA
  2 .text         00003810  080a0020  080a0020  00010020  2**3
                  CONTENTS, ALLOC, LOAD, READONLY, CODE
  3 .backup       00000004  40024000  080a3830  00014000  2**2
                  CONTENTS, ALLOC, LOAD, DATA
  4 .data         00000070  20000000  080a3834  00020000  2**2
                  CONTENTS, ALLOC, LOAD, DATA
  5 .bss          000004a8  20000070  20000070  00030070  2**2
                  ALLOC
  6 .module_info_suffix 00000028  080a38a4  080a38a4  000238a4  2**0
                  CONTENTS, ALLOC, LOAD, READONLY, DATA
  7 .module_info_crc 00000004  080a38cc  080a38cc  000238cc  2**0
                  CONTENTS, ALLOC, LOAD, READONLY, DATA
  8 .debug_info   000a4f59  00000000  00000000  000238d0  2**0
                  CONTENTS, READONLY, DEBUGGING, OCTETS
  9 .debug_abbrev 0000f611  00000000  00000000  000c8829  2**0
                  CONTENTS, READONLY, DEBUGGING, OCTETS
 10 .debug_loc    000145f0  00000000  00000000  000d7e3a  2**0
                  CONTENTS, READONLY, DEBUGGING, OCTETS
 11 .debug_aranges 00001ce8  00000000  00000000  000ec42a  2**0
                  CONTENTS, READONLY, DEBUGGING, OCTETS
 12 .debug_ranges 00003e58  00000000  00000000  000ee112  2**0
                  CONTENTS, READONLY, DEBUGGING, OCTETS
 13 .debug_macro  000288c4  00000000  00000000  000f1f6a  2**0
                  CONTENTS, READONLY, DEBUGGING, OCTETS
 14 .debug_line   0002a596  00000000  00000000  0011a82e  2**0
                  CONTENTS, READONLY, DEBUGGING, OCTETS
 15 .debug_str    000b40f6  00000000  00000000  00144dc4  2**0
                  CONTENTS, READONLY, DEBUGGING, OCTETS
 16 .debug_frame  00004a24  00000000  00000000  001f8ebc  2**2
                  CONTENTS, READONLY, DEBUGGING, OCTETS

Disassembly of section .text:

080a0020 <module_user_pre_init>:
/**
 * Initializes this user module. Returns the start of the heap.
 */
void* module_user_pre_init() {

    if ( (&link_global_data_start!=&link_global_data_initial_values) && (link_global_data_size != 0))
 80a0020:	4809      	ldr	r0, [pc, #36]	; (80a0048 <module_user_pre_init+0x28>)
 80a0022:	490a      	ldr	r1, [pc, #40]	; (80a004c <module_user_pre_init+0x2c>)
void* module_user_pre_init() {
 80a0024:	b508      	push	{r3, lr}
    if ( (&link_global_data_start!=&link_global_data_initial_values) && (link_global_data_size != 0))
 80a0026:	4288      	cmp	r0, r1
 80a0028:	d005      	beq.n	80a0036 <module_user_pre_init+0x16>
 80a002a:	4a09      	ldr	r2, [pc, #36]	; (80a0050 <module_user_pre_init+0x30>)
 80a002c:	4282      	cmp	r2, r0
 80a002e:	d002      	beq.n	80a0036 <module_user_pre_init+0x16>
    {
        memcpy(&link_global_data_start, &link_global_data_initial_values, link_global_data_size);
 80a0030:	1a12      	subs	r2, r2, r0
 80a0032:	f003 fa03 	bl	80a343c <memcpy>
    }

    memset(&link_bss_location, 0, link_bss_size );
 80a0036:	4807      	ldr	r0, [pc, #28]	; (80a0054 <module_user_pre_init+0x34>)
 80a0038:	4a07      	ldr	r2, [pc, #28]	; (80a0058 <module_user_pre_init+0x38>)
 80a003a:	2100      	movs	r1, #0
 80a003c:	1a12      	subs	r2, r2, r0
 80a003e:	f003 fa0b 	bl	80a3458 <memset>
    return &link_heap_start;
}
 80a0042:	4806      	ldr	r0, [pc, #24]	; (80a005c <module_user_pre_init+0x3c>)
 80a0044:	bd08      	pop	{r3, pc}
 80a0046:	bf00      	nop
 80a0048:	20000000 	.word	0x20000000
 80a004c:	080a3834 	.word	0x080a3834
 80a0050:	20000070 	.word	0x20000070
 80a0054:	20000070 	.word	0x20000070
 80a0058:	20000515 	.word	0x20000515
 80a005c:	20000515 	.word	0x20000515

080a0060 <module_user_init>:
extern constructor_ptr_t link_constructors_location[];
extern constructor_ptr_t link_constructors_end;
#define link_constructors_size   ((unsigned long)&link_constructors_end  -  (unsigned long)&link_constructors_location )

void module_user_init()
{
 80a0060:	b570      	push	{r4, r5, r6, lr}
    module_user_init_hook();
 80a0062:	f001 ffd9 	bl	80a2018 <module_user_init_hook>

    // invoke constructors
    for (size_t ctor_num=0; ctor_num < link_constructors_size/sizeof(constructor_ptr_t); ctor_num++ )
 80a0066:	2500      	movs	r5, #0
 80a0068:	4e05      	ldr	r6, [pc, #20]	; (80a0080 <module_user_init+0x20>)
 80a006a:	4c06      	ldr	r4, [pc, #24]	; (80a0084 <module_user_init+0x24>)
 80a006c:	1ba4      	subs	r4, r4, r6
 80a006e:	08a4      	lsrs	r4, r4, #2
 80a0070:	42ac      	cmp	r4, r5
 80a0072:	d100      	bne.n	80a0076 <module_user_init+0x16>
    {
        link_constructors_location[ctor_num]();
    }
}
 80a0074:	bd70      	pop	{r4, r5, r6, pc}
        link_constructors_location[ctor_num]();
 80a0076:	f856 3b04 	ldr.w	r3, [r6], #4
 80a007a:	4798      	blx	r3
    for (size_t ctor_num=0; ctor_num < link_constructors_size/sizeof(constructor_ptr_t); ctor_num++ )
 80a007c:	3501      	adds	r5, #1
 80a007e:	e7f7      	b.n	80a0070 <module_user_init+0x10>
 80a0080:	080a3808 	.word	0x080a3808
 80a0084:	080a382c 	.word	0x080a382c

080a0088 <module_user_setup>:

/**
 * Export these functions with a fuller name so they don't clash with the setup/loop wrappers in the system module.
 */
void module_user_setup() {
    setup();
 80a0088:	f000 b826 	b.w	80a00d8 <setup>

080a008c <module_user_loop>:
}

void module_user_loop() {
 80a008c:	b508      	push	{r3, lr}
    loop();
 80a008e:	f000 f8b7 	bl	80a0200 <loop>
    _post_loop();
}
 80a0092:	e8bd 4008 	ldmia.w	sp!, {r3, lr}
    _post_loop();
 80a0096:	f001 bf77 	b.w	80a1f88 <_post_loop>

080a009a <_Znaj>:
 80a009a:	f001 bdaf 	b.w	80a1bfc <malloc>

080a009e <_ZdlPvj>:
	free(p);
}

void operator delete(void *p, size_t size)
{
	free(p);
 80a009e:	f001 bdb5 	b.w	80a1c0c <free>

080a00a2 <__cxa_guard_acquire>:

/* Provide default implemenation for __cxa_guard_acquire() and
 * __cxa_guard_release(). Note: these must be revisited if a multitasking
 * OS is ported to this platform. */
__extension__ typedef int __guard __attribute__((mode (__DI__)));
int __cxa_guard_acquire(__guard *g) {return !*(char *)(g);};
 80a00a2:	7800      	ldrb	r0, [r0, #0]
 80a00a4:	fab0 f080 	clz	r0, r0
 80a00a8:	0940      	lsrs	r0, r0, #5
 80a00aa:	4770      	bx	lr

080a00ac <__cxa_guard_release>:
void __cxa_guard_release (__guard *g) {*(char *)g = 1;};
 80a00ac:	2301      	movs	r3, #1
 80a00ae:	7003      	strb	r3, [r0, #0]
 80a00b0:	4770      	bx	lr

080a00b2 <_ZN5Print5printIiLi0EEEjT_i.part.0.isra.0>:
    size_t vprintf(bool newline, const char* format, va_list args) __attribute__ ((format(printf, 3, 0)));
};

template <typename T, std::enable_if_t<!std::is_base_of<Printable, T>::value && (std::is_integral<T>::value || std::is_convertible<T, unsigned long long>::value ||
    std::is_convertible<T, long long>::value), int>>
size_t Print::print(T n, int base)
 80a00b2:	b570      	push	{r4, r5, r6, lr}
// FIXME: avoids 'comparison of constant '0' with boolean expression is always false'
#if __GNUC__ >= 9
#pragma GCC diagnostic push
#pragma GCC diagnostic ignored "-Wbool-compare"
#endif // __GNUC__ >= 9
        if (n < 0 && base == 10) {
 80a00b4:	1e0c      	subs	r4, r1, #0
size_t Print::print(T n, int base)
 80a00b6:	4606      	mov	r6, r0
 80a00b8:	4615      	mov	r5, r2
        if (n < 0 && base == 10) {
 80a00ba:	da0b      	bge.n	80a00d4 <_ZN5Print5printIiLi0EEEjT_i.part.0.isra.0+0x22>
 80a00bc:	2a0a      	cmp	r2, #10
 80a00be:	d109      	bne.n	80a00d4 <_ZN5Print5printIiLi0EEEjT_i.part.0.isra.0+0x22>
            t = print('-');
 80a00c0:	212d      	movs	r1, #45	; 0x2d
 80a00c2:	f001 fe07 	bl	80a1cd4 <_ZN5Print5printEc>
            val = -n;
 80a00c6:	4261      	negs	r1, r4
            val = n;
        }
#if __GNUC__ >= 9
#pragma GCC diagnostic pop
#endif // __GNUC__ >= 9
        return printNumber(val, base) + t;
 80a00c8:	4630      	mov	r0, r6
 80a00ca:	b2ea      	uxtb	r2, r5
    }
}
 80a00cc:	e8bd 4070 	ldmia.w	sp!, {r4, r5, r6, lr}
        return printNumber(val, base) + t;
 80a00d0:	f001 be19 	b.w	80a1d06 <_ZN5Print11printNumberEmh>
            val = n;
 80a00d4:	4621      	mov	r1, r4
 80a00d6:	e7f7      	b.n	80a00c8 <_ZN5Print5printIiLi0EEEjT_i.part.0.isra.0+0x16>

080a00d8 <setup>:
// Variable for the next time the sensor will be read
unsigned long int nextSensorReadTime;
unsigned long int nextLedFlashTime;
unsigned long int stateChangeTime;

void setup() {
 80a00d8:	b538      	push	{r3, r4, r5, lr}
  // Initialize the Serial communication
  Serial.begin(9600);
 80a00da:	f002 f89f 	bl	80a221c <_Z16_fetch_usbserialv>
 80a00de:	f44f 5116 	mov.w	r1, #9600	; 0x2580
 80a00e2:	f002 f881 	bl	80a21e8 <_ZN9USBSerial5beginEl>

  pinMode(BUTTON_PIN, INPUT_PULLDOWN);
 80a00e6:	2103      	movs	r1, #3
  strip.begin();

  // set up the LCD's number of columns and rows:
  lcd.begin(16, 2);

  deviceMode = WARMING_UP;
 80a00e8:	2500      	movs	r5, #0
  pinMode(BUTTON_PIN, INPUT_PULLDOWN);
 80a00ea:	4608      	mov	r0, r1
  lcd.begin(16, 2);
 80a00ec:	4c11      	ldr	r4, [pc, #68]	; (80a0134 <setup+0x5c>)
  pinMode(BUTTON_PIN, INPUT_PULLDOWN);
 80a00ee:	f002 faad 	bl	80a264c <pinMode>
  strip.begin();
 80a00f2:	4811      	ldr	r0, [pc, #68]	; (80a0138 <setup+0x60>)
 80a00f4:	f000 f986 	bl	80a0404 <_ZN17Adafruit_NeoPixel5beginEv>
  lcd.begin(16, 2);
 80a00f8:	2202      	movs	r2, #2
 80a00fa:	2110      	movs	r1, #16
 80a00fc:	4620      	mov	r0, r4
 80a00fe:	2300      	movs	r3, #0
 80a0100:	f001 fb49 	bl	80a1796 <_ZN7rgb_lcd5beginEhhh>
  deviceMode = WARMING_UP;
 80a0104:	4b0d      	ldr	r3, [pc, #52]	; (80a013c <setup+0x64>)
 80a0106:	601d      	str	r5, [r3, #0]

#ifdef __cplusplus
extern "C" {
#endif

inline system_tick_t millis(void) { return HAL_Timer_Get_Milli_Seconds(); }
 80a0108:	f001 fbf2 	bl	80a18f0 <HAL_Timer_Get_Milli_Seconds>
  stateChangeTime = millis() + WARMING_UP_MODE_TIME;
 80a010c:	4b0c      	ldr	r3, [pc, #48]	; (80a0140 <setup+0x68>)
 80a010e:	f500 409c 	add.w	r0, r0, #19968	; 0x4e00
 80a0112:	3020      	adds	r0, #32
  
  lcd.setRGB(colorR, colorG, colorB);
 80a0114:	462a      	mov	r2, r5
  stateChangeTime = millis() + WARMING_UP_MODE_TIME;
 80a0116:	6018      	str	r0, [r3, #0]
  lcd.setRGB(colorR, colorG, colorB);
 80a0118:	21ff      	movs	r1, #255	; 0xff
 80a011a:	462b      	mov	r3, r5
 80a011c:	4620      	mov	r0, r4
 80a011e:	f001 fb26 	bl	80a176e <_ZN7rgb_lcd6setRGBEhhh>
  
  // Print a message to the LCD.
  lcd.print("PPM");
 80a0122:	4620      	mov	r0, r4
 80a0124:	4907      	ldr	r1, [pc, #28]	; (80a0144 <setup+0x6c>)
 80a0126:	f001 fdd1 	bl	80a1ccc <_ZN5Print5printEPKc>

  delay(100);
}
 80a012a:	e8bd 4038 	ldmia.w	sp!, {r3, r4, r5, lr}
  delay(100);
 80a012e:	2064      	movs	r0, #100	; 0x64
 80a0130:	f001 beea 	b.w	80a1f08 <delay>
 80a0134:	20000078 	.word	0x20000078
 80a0138:	2000009c 	.word	0x2000009c
 80a013c:	20000070 	.word	0x20000070
 80a0140:	20000098 	.word	0x20000098
 80a0144:	080a35b8 	.word	0x080a35b8

080a0148 <_Z13readMQ3Sensori>:
  strip.show();

  delay(10);
}

float readMQ3Sensor(int rawValue) {
 80a0148:	b570      	push	{r4, r5, r6, lr}
 80a014a:	4606      	mov	r6, r0
  float voltage = (float)rawValue * 5.0 / 4095.0;
 80a014c:	f003 f91c 	bl	80a3388 <__aeabi_i2f>
 80a0150:	f002 fcc0 	bl	80a2ad4 <__aeabi_f2d>
 80a0154:	2200      	movs	r2, #0
 80a0156:	4b24      	ldr	r3, [pc, #144]	; (80a01e8 <_Z13readMQ3Sensori+0xa0>)
 80a0158:	f002 fd14 	bl	80a2b84 <__aeabi_dmul>
 80a015c:	a31e      	add	r3, pc, #120	; (adr r3, 80a01d8 <_Z13readMQ3Sensori+0x90>)
 80a015e:	e9d3 2300 	ldrd	r2, r3, [r3]
 80a0162:	f002 fe39 	bl	80a2dd8 <__aeabi_ddiv>
 80a0166:	f003 f805 	bl	80a3174 <__aeabi_d2f>
 80a016a:	4604      	mov	r4, r0

  // Debug
  Serial.print("MQ-2 Sensor Data:\n");
 80a016c:	f002 f856 	bl	80a221c <_Z16_fetch_usbserialv>
 80a0170:	491e      	ldr	r1, [pc, #120]	; (80a01ec <_Z13readMQ3Sensori+0xa4>)
 80a0172:	f001 fdab 	bl	80a1ccc <_ZN5Print5printEPKc>
  Serial.print("Raw Value: ");
 80a0176:	f002 f851 	bl	80a221c <_Z16_fetch_usbserialv>
 80a017a:	491d      	ldr	r1, [pc, #116]	; (80a01f0 <_Z13readMQ3Sensori+0xa8>)
 80a017c:	f001 fda6 	bl	80a1ccc <_ZN5Print5printEPKc>
  Serial.println(rawValue);
 80a0180:	f002 f84c 	bl	80a221c <_Z16_fetch_usbserialv>
 80a0184:	4605      	mov	r5, r0
size_t Print::print(T n, int base)
 80a0186:	220a      	movs	r2, #10
 80a0188:	4631      	mov	r1, r6
 80a018a:	f7ff ff92 	bl	80a00b2 <_ZN5Print5printIiLi0EEEjT_i.part.0.isra.0>
        n += println();
 80a018e:	4628      	mov	r0, r5
 80a0190:	f001 fda3 	bl	80a1cda <_ZN5Print7printlnEv>
  Serial.print("Voltage: ");
 80a0194:	f002 f842 	bl	80a221c <_Z16_fetch_usbserialv>
 80a0198:	4916      	ldr	r1, [pc, #88]	; (80a01f4 <_Z13readMQ3Sensori+0xac>)
 80a019a:	f001 fd97 	bl	80a1ccc <_ZN5Print5printEPKc>
  Serial.print(voltage);
 80a019e:	f002 f83d 	bl	80a221c <_Z16_fetch_usbserialv>
 80a01a2:	2202      	movs	r2, #2
 80a01a4:	4621      	mov	r1, r4
 80a01a6:	f001 fe8d 	bl	80a1ec4 <_ZN5Print5printEfi>
  Serial.println(" V");
 80a01aa:	f002 f837 	bl	80a221c <_Z16_fetch_usbserialv>
 80a01ae:	4912      	ldr	r1, [pc, #72]	; (80a01f8 <_Z13readMQ3Sensori+0xb0>)
 80a01b0:	f001 fd9f 	bl	80a1cf2 <_ZN5Print7printlnEPKc>
  // Debug end

  return (voltage / 1.1) * 1000.0;
 80a01b4:	4620      	mov	r0, r4
 80a01b6:	f002 fc8d 	bl	80a2ad4 <__aeabi_f2d>
 80a01ba:	a309      	add	r3, pc, #36	; (adr r3, 80a01e0 <_Z13readMQ3Sensori+0x98>)
 80a01bc:	e9d3 2300 	ldrd	r2, r3, [r3]
 80a01c0:	f002 fe0a 	bl	80a2dd8 <__aeabi_ddiv>
 80a01c4:	2200      	movs	r2, #0
 80a01c6:	4b0d      	ldr	r3, [pc, #52]	; (80a01fc <_Z13readMQ3Sensori+0xb4>)
 80a01c8:	f002 fcdc 	bl	80a2b84 <__aeabi_dmul>
 80a01cc:	f002 ffd2 	bl	80a3174 <__aeabi_d2f>
}
 80a01d0:	bd70      	pop	{r4, r5, r6, pc}
 80a01d2:	bf00      	nop
 80a01d4:	f3af 8000 	nop.w
 80a01d8:	00000000 	.word	0x00000000
 80a01dc:	40affe00 	.word	0x40affe00
 80a01e0:	9999999a 	.word	0x9999999a
 80a01e4:	3ff19999 	.word	0x3ff19999
 80a01e8:	40140000 	.word	0x40140000
 80a01ec:	080a35bc 	.word	0x080a35bc
 80a01f0:	080a35cf 	.word	0x080a35cf
 80a01f4:	080a35db 	.word	0x080a35db
 80a01f8:	080a35e5 	.word	0x080a35e5
 80a01fc:	408f4000 	.word	0x408f4000

080a0200 <loop>:
void loop() {
 80a0200:	e92d 43f8 	stmdb	sp!, {r3, r4, r5, r6, r7, r8, r9, lr}
 80a0204:	f001 fb74 	bl	80a18f0 <HAL_Timer_Get_Milli_Seconds>
  if(currentTime > nextSensorReadTime) {
 80a0208:	4d5b      	ldr	r5, [pc, #364]	; (80a0378 <loop+0x178>)
 80a020a:	4604      	mov	r4, r0
 80a020c:	682b      	ldr	r3, [r5, #0]
 80a020e:	4f5b      	ldr	r7, [pc, #364]	; (80a037c <loop+0x17c>)
 80a0210:	4283      	cmp	r3, r0
 80a0212:	d219      	bcs.n	80a0248 <loop+0x48>
    ppm = readMQ3Sensor(analogRead(mq2Pin));
 80a0214:	200a      	movs	r0, #10
 80a0216:	f002 fa56 	bl	80a26c6 <analogRead>
 80a021a:	f7ff ff95 	bl	80a0148 <_Z13readMQ3Sensori>
    nextSensorReadTime += SENSOR_READ_TIME_DIFFERENCE;
 80a021e:	682b      	ldr	r3, [r5, #0]
    ppm = readMQ3Sensor(analogRead(mq2Pin));
 80a0220:	6038      	str	r0, [r7, #0]
    nextSensorReadTime += SENSOR_READ_TIME_DIFFERENCE;
 80a0222:	f503 63fa 	add.w	r3, r3, #2000	; 0x7d0
 80a0226:	602b      	str	r3, [r5, #0]
    Serial.print("PPM: ");
 80a0228:	f001 fff8 	bl	80a221c <_Z16_fetch_usbserialv>
 80a022c:	4954      	ldr	r1, [pc, #336]	; (80a0380 <loop+0x180>)
 80a022e:	f001 fd4d 	bl	80a1ccc <_ZN5Print5printEPKc>
    Serial.print(ppm);
 80a0232:	f001 fff3 	bl	80a221c <_Z16_fetch_usbserialv>
 80a0236:	6839      	ldr	r1, [r7, #0]
 80a0238:	2202      	movs	r2, #2
 80a023a:	f001 fe43 	bl	80a1ec4 <_ZN5Print5printEfi>
    Serial.println(" ppm");
 80a023e:	f001 ffed 	bl	80a221c <_Z16_fetch_usbserialv>
 80a0242:	4950      	ldr	r1, [pc, #320]	; (80a0384 <loop+0x184>)
 80a0244:	f001 fd55 	bl	80a1cf2 <_ZN5Print7printlnEPKc>
  int buttonReading = digitalRead(BUTTON_PIN);
 80a0248:	2003      	movs	r0, #3
 80a024a:	f002 fa29 	bl	80a26a0 <digitalRead>
  if(deviceMode != READING && buttonReading == HIGH && lastButtonReading == LOW) {
 80a024e:	4d4e      	ldr	r5, [pc, #312]	; (80a0388 <loop+0x188>)
  int buttonReading = digitalRead(BUTTON_PIN);
 80a0250:	4606      	mov	r6, r0
  if(deviceMode != READING && buttonReading == HIGH && lastButtonReading == LOW) {
 80a0252:	682b      	ldr	r3, [r5, #0]
 80a0254:	f8df 8134 	ldr.w	r8, [pc, #308]	; 80a038c <loop+0x18c>
 80a0258:	2b02      	cmp	r3, #2
 80a025a:	d010      	beq.n	80a027e <loop+0x7e>
 80a025c:	2801      	cmp	r0, #1
 80a025e:	d10e      	bne.n	80a027e <loop+0x7e>
 80a0260:	f8d8 2000 	ldr.w	r2, [r8]
 80a0264:	b95a      	cbnz	r2, 80a027e <loop+0x7e>
    deviceMode = (deviceMode + 1) % NUM_MODES;
 80a0266:	2206      	movs	r2, #6
 80a0268:	3301      	adds	r3, #1
 80a026a:	fb93 f1f2 	sdiv	r1, r3, r2
 80a026e:	fb02 3311 	mls	r3, r2, r1, r3
 80a0272:	602b      	str	r3, [r5, #0]
    Serial.print("Button press");
 80a0274:	f001 ffd2 	bl	80a221c <_Z16_fetch_usbserialv>
 80a0278:	4945      	ldr	r1, [pc, #276]	; (80a0390 <loop+0x190>)
 80a027a:	f001 fd27 	bl	80a1ccc <_ZN5Print5printEPKc>
  lcd.setCursor(0, 1);
 80a027e:	2201      	movs	r2, #1
 80a0280:	2100      	movs	r1, #0
 80a0282:	4844      	ldr	r0, [pc, #272]	; (80a0394 <loop+0x194>)
  lastButtonReading = buttonReading;
 80a0284:	f8c8 6000 	str.w	r6, [r8]
  lcd.setCursor(0, 1);
 80a0288:	f001 fa3c 	bl	80a1704 <_ZN7rgb_lcd9setCursorEhh>
  lcd.print(ppm);
 80a028c:	6839      	ldr	r1, [r7, #0]
 80a028e:	2202      	movs	r2, #2
 80a0290:	4840      	ldr	r0, [pc, #256]	; (80a0394 <loop+0x194>)
 80a0292:	f001 fe17 	bl	80a1ec4 <_ZN5Print5printEfi>
  int PixelColorRed = strip.Color(0, intensity, 0);
 80a0296:	2200      	movs	r2, #0
 80a0298:	4e3f      	ldr	r6, [pc, #252]	; (80a0398 <loop+0x198>)
 80a029a:	4610      	mov	r0, r2
 80a029c:	7831      	ldrb	r1, [r6, #0]
 80a029e:	f001 f9d6 	bl	80a164e <_ZN17Adafruit_NeoPixel5ColorEhhh>
  int PixelColorGreen  = strip.Color(intensity,  0,  0);
 80a02a2:	2200      	movs	r2, #0
  int PixelColorRed = strip.Color(0, intensity, 0);
 80a02a4:	4607      	mov	r7, r0
  int PixelColorGreen  = strip.Color(intensity,  0,  0);
 80a02a6:	4611      	mov	r1, r2
 80a02a8:	7830      	ldrb	r0, [r6, #0]
 80a02aa:	f001 f9d0 	bl	80a164e <_ZN17Adafruit_NeoPixel5ColorEhhh>
  int PixelColorYellow = strip.Color(  intensity, intensity, 0);
 80a02ae:	7831      	ldrb	r1, [r6, #0]
 80a02b0:	2200      	movs	r2, #0
  int PixelColorGreen  = strip.Color(intensity,  0,  0);
 80a02b2:	4681      	mov	r9, r0
  int PixelColorYellow = strip.Color(  intensity, intensity, 0);
 80a02b4:	4608      	mov	r0, r1
 80a02b6:	f001 f9ca 	bl	80a164e <_ZN17Adafruit_NeoPixel5ColorEhhh>
  int PixelColorOff = strip.Color(  0,  0,  0);
 80a02ba:	2200      	movs	r2, #0
  int PixelColorYellow = strip.Color(  intensity, intensity, 0);
 80a02bc:	4680      	mov	r8, r0
  int PixelColorOff = strip.Color(  0,  0,  0);
 80a02be:	4611      	mov	r1, r2
 80a02c0:	4610      	mov	r0, r2
 80a02c2:	f001 f9c4 	bl	80a164e <_ZN17Adafruit_NeoPixel5ColorEhhh>
 80a02c6:	682b      	ldr	r3, [r5, #0]
 80a02c8:	4606      	mov	r6, r0
  switch (deviceMode) {
 80a02ca:	2b05      	cmp	r3, #5
 80a02cc:	d851      	bhi.n	80a0372 <loop+0x172>
 80a02ce:	e8df f003 	tbb	[pc, r3]
 80a02d2:	5003      	.short	0x5003
 80a02d4:	3c1e4e20 	.word	0x3c1e4e20
      if(currentTime > stateChangeTime) {
 80a02d8:	4b30      	ldr	r3, [pc, #192]	; (80a039c <loop+0x19c>)
      if(currentTime > nextLedFlashTime) {
 80a02da:	4931      	ldr	r1, [pc, #196]	; (80a03a0 <loop+0x1a0>)
      if(currentTime > stateChangeTime) {
 80a02dc:	681b      	ldr	r3, [r3, #0]
      if(currentTime > nextLedFlashTime) {
 80a02de:	680a      	ldr	r2, [r1, #0]
      if(currentTime > stateChangeTime) {
 80a02e0:	42a3      	cmp	r3, r4
        deviceMode = IDLE;
 80a02e2:	bf3c      	itt	cc
 80a02e4:	2301      	movcc	r3, #1
 80a02e6:	602b      	strcc	r3, [r5, #0]
      if(currentTime > nextLedFlashTime) {
 80a02e8:	42a2      	cmp	r2, r4
 80a02ea:	4c2e      	ldr	r4, [pc, #184]	; (80a03a4 <loop+0x1a4>)
 80a02ec:	d207      	bcs.n	80a02fe <loop+0xfe>
        ledFlashOn = !ledFlashOn;
 80a02ee:	6823      	ldr	r3, [r4, #0]
        nextLedFlashTime += WARMING_UP_LED_TIME_DIFFERENCE;
 80a02f0:	f502 727a 	add.w	r2, r2, #1000	; 0x3e8
        ledFlashOn = !ledFlashOn;
 80a02f4:	fab3 f383 	clz	r3, r3
 80a02f8:	095b      	lsrs	r3, r3, #5
 80a02fa:	6023      	str	r3, [r4, #0]
        nextLedFlashTime += WARMING_UP_LED_TIME_DIFFERENCE;
 80a02fc:	600a      	str	r2, [r1, #0]
      Serial.print(ledFlashOn);
 80a02fe:	f001 ff8d 	bl	80a221c <_Z16_fetch_usbserialv>
size_t Print::print(T n, int base)
 80a0302:	6821      	ldr	r1, [r4, #0]
 80a0304:	220a      	movs	r2, #10
 80a0306:	f7ff fed4 	bl	80a00b2 <_ZN5Print5printIiLi0EEEjT_i.part.0.isra.0>
      if (ledFlashOn) {
 80a030a:	6821      	ldr	r1, [r4, #0]
 80a030c:	b1c9      	cbz	r1, 80a0342 <loop+0x142>
      strip.setPixelColor(0, PixelColorRed);
 80a030e:	463a      	mov	r2, r7
 80a0310:	e015      	b.n	80a033e <loop+0x13e>
      if(currentTime > stateChangeTime) {
 80a0312:	4b22      	ldr	r3, [pc, #136]	; (80a039c <loop+0x19c>)
      if(currentTime > nextLedFlashTime) {
 80a0314:	4822      	ldr	r0, [pc, #136]	; (80a03a0 <loop+0x1a0>)
      if(currentTime > stateChangeTime) {
 80a0316:	681b      	ldr	r3, [r3, #0]
      if(currentTime > nextLedFlashTime) {
 80a0318:	6801      	ldr	r1, [r0, #0]
      if(currentTime > stateChangeTime) {
 80a031a:	42a3      	cmp	r3, r4
        deviceMode = INTERPRET_RESULT;
 80a031c:	bf3c      	itt	cc
 80a031e:	2305      	movcc	r3, #5
 80a0320:	602b      	strcc	r3, [r5, #0]
      if(currentTime > nextLedFlashTime) {
 80a0322:	42a1      	cmp	r1, r4
 80a0324:	4a1f      	ldr	r2, [pc, #124]	; (80a03a4 <loop+0x1a4>)
 80a0326:	d207      	bcs.n	80a0338 <loop+0x138>
        ledFlashOn = !ledFlashOn;
 80a0328:	6813      	ldr	r3, [r2, #0]
        nextLedFlashTime += READING_LED_TIME_DIFFERENCE;
 80a032a:	f501 71fa 	add.w	r1, r1, #500	; 0x1f4
        ledFlashOn = !ledFlashOn;
 80a032e:	fab3 f383 	clz	r3, r3
 80a0332:	095b      	lsrs	r3, r3, #5
 80a0334:	6013      	str	r3, [r2, #0]
        nextLedFlashTime += READING_LED_TIME_DIFFERENCE;
 80a0336:	6001      	str	r1, [r0, #0]
      if (ledFlashOn) {
 80a0338:	6811      	ldr	r1, [r2, #0]
 80a033a:	b111      	cbz	r1, 80a0342 <loop+0x142>
        strip.setPixelColor(0, PixelColorYellow);
 80a033c:	4642      	mov	r2, r8
      strip.setPixelColor(0, PixelColorOff);
 80a033e:	2100      	movs	r1, #0
 80a0340:	e000      	b.n	80a0344 <loop+0x144>
        strip.setPixelColor(0, PixelColorOff);
 80a0342:	4632      	mov	r2, r6
      strip.setPixelColor(0, PixelColorOff);
 80a0344:	4818      	ldr	r0, [pc, #96]	; (80a03a8 <loop+0x1a8>)
 80a0346:	f001 f93f 	bl	80a15c8 <_ZN17Adafruit_NeoPixel13setPixelColorEtm>
  Serial.println(deviceMode);
 80a034a:	f001 ff67 	bl	80a221c <_Z16_fetch_usbserialv>
 80a034e:	4604      	mov	r4, r0
 80a0350:	6829      	ldr	r1, [r5, #0]
 80a0352:	220a      	movs	r2, #10
 80a0354:	f7ff fead 	bl	80a00b2 <_ZN5Print5printIiLi0EEEjT_i.part.0.isra.0>
        n += println();
 80a0358:	4620      	mov	r0, r4
 80a035a:	f001 fcbe 	bl	80a1cda <_ZN5Print7printlnEv>
  strip.show();
 80a035e:	4812      	ldr	r0, [pc, #72]	; (80a03a8 <loop+0x1a8>)
 80a0360:	f000 f886 	bl	80a0470 <_ZN17Adafruit_NeoPixel4showEv>
}
 80a0364:	e8bd 43f8 	ldmia.w	sp!, {r3, r4, r5, r6, r7, r8, r9, lr}
  delay(10);
 80a0368:	200a      	movs	r0, #10
 80a036a:	f001 bdcd 	b.w	80a1f08 <delay>
      strip.setPixelColor(0, PixelColorGreen);
 80a036e:	464a      	mov	r2, r9
 80a0370:	e7e5      	b.n	80a033e <loop+0x13e>
      strip.setPixelColor(0, PixelColorOff);
 80a0372:	4602      	mov	r2, r0
 80a0374:	e7e3      	b.n	80a033e <loop+0x13e>
 80a0376:	bf00      	nop
 80a0378:	20000090 	.word	0x20000090
 80a037c:	20000094 	.word	0x20000094
 80a0380:	080a35e8 	.word	0x080a35e8
 80a0384:	080a35ee 	.word	0x080a35ee
 80a0388:	20000070 	.word	0x20000070
 80a038c:	20000074 	.word	0x20000074
 80a0390:	080a35f3 	.word	0x080a35f3
 80a0394:	20000078 	.word	0x20000078
 80a0398:	20000000 	.word	0x20000000
 80a039c:	20000098 	.word	0x20000098
 80a03a0:	2000008c 	.word	0x2000008c
 80a03a4:	20000088 	.word	0x20000088
 80a03a8:	2000009c 	.word	0x2000009c

080a03ac <_GLOBAL__sub_I_lcd>:
}
 80a03ac:	b510      	push	{r4, lr}
rgb_lcd lcd;
 80a03ae:	4805      	ldr	r0, [pc, #20]	; (80a03c4 <_GLOBAL__sub_I_lcd+0x18>)
 80a03b0:	f001 f996 	bl	80a16e0 <_ZN7rgb_lcdC1Ev>
}
 80a03b4:	e8bd 4010 	ldmia.w	sp!, {r4, lr}
Adafruit_NeoPixel strip = Adafruit_NeoPixel(PIXEL_COUNT, PIXEL_PIN, PIXEL_TYPE);
 80a03b8:	2302      	movs	r3, #2
 80a03ba:	2204      	movs	r2, #4
 80a03bc:	2101      	movs	r1, #1
 80a03be:	4802      	ldr	r0, [pc, #8]	; (80a03c8 <_GLOBAL__sub_I_lcd+0x1c>)
 80a03c0:	f000 b845 	b.w	80a044e <_ZN17Adafruit_NeoPixelC1Ethh>
 80a03c4:	20000078 	.word	0x20000078
 80a03c8:	2000009c 	.word	0x2000009c

080a03cc <_ZN17Adafruit_NeoPixel12updateLengthEt>:

uint8_t Adafruit_NeoPixel::getType() const {
    return type;
}

void Adafruit_NeoPixel::updateLength(uint16_t n) {
 80a03cc:	b538      	push	{r3, r4, r5, lr}
 80a03ce:	4604      	mov	r4, r0
  if (pixels) free(pixels); // Free existing data (if any)
 80a03d0:	68c0      	ldr	r0, [r0, #12]
void Adafruit_NeoPixel::updateLength(uint16_t n) {
 80a03d2:	460d      	mov	r5, r1
  if (pixels) free(pixels); // Free existing data (if any)
 80a03d4:	b108      	cbz	r0, 80a03da <_ZN17Adafruit_NeoPixel12updateLengthEt+0xe>
 80a03d6:	f001 fc19 	bl	80a1c0c <free>

  // Allocate new data -- note: ALL PIXELS ARE CLEARED
  numBytes = n * ((type == SK6812RGBW) ? 4 : 3);
 80a03da:	79a3      	ldrb	r3, [r4, #6]
 80a03dc:	2b06      	cmp	r3, #6
 80a03de:	bf0c      	ite	eq
 80a03e0:	2004      	moveq	r0, #4
 80a03e2:	2003      	movne	r0, #3
 80a03e4:	4368      	muls	r0, r5
 80a03e6:	b280      	uxth	r0, r0
 80a03e8:	80a0      	strh	r0, [r4, #4]
  if ((pixels = (uint8_t *)malloc(numBytes))) {
 80a03ea:	f001 fc07 	bl	80a1bfc <malloc>
 80a03ee:	60e0      	str	r0, [r4, #12]
 80a03f0:	b128      	cbz	r0, 80a03fe <_ZN17Adafruit_NeoPixel12updateLengthEt+0x32>
    memset(pixels, 0, numBytes);
 80a03f2:	2100      	movs	r1, #0
 80a03f4:	88a2      	ldrh	r2, [r4, #4]
 80a03f6:	f003 f82f 	bl	80a3458 <memset>
    numLEDs = n;
 80a03fa:	8065      	strh	r5, [r4, #2]
  } else {
    numLEDs = numBytes = 0;
  }
}
 80a03fc:	bd38      	pop	{r3, r4, r5, pc}
    numLEDs = numBytes = 0;
 80a03fe:	80a0      	strh	r0, [r4, #4]
 80a0400:	8060      	strh	r0, [r4, #2]
}
 80a0402:	e7fb      	b.n	80a03fc <_ZN17Adafruit_NeoPixel12updateLengthEt+0x30>

080a0404 <_ZN17Adafruit_NeoPixel5beginEv>:

void Adafruit_NeoPixel::begin(void) {
 80a0404:	b510      	push	{r4, lr}
 80a0406:	4604      	mov	r4, r0
  pinMode(pin, OUTPUT);
 80a0408:	2101      	movs	r1, #1
 80a040a:	79c0      	ldrb	r0, [r0, #7]
 80a040c:	f002 f91e 	bl	80a264c <pinMode>
  digitalWrite(pin, LOW);
 80a0410:	2100      	movs	r1, #0
 80a0412:	79e0      	ldrb	r0, [r4, #7]
 80a0414:	f002 f92b 	bl	80a266e <digitalWrite>
  begun = true;
 80a0418:	2301      	movs	r3, #1
 80a041a:	7023      	strb	r3, [r4, #0]
}
 80a041c:	bd10      	pop	{r4, pc}

080a041e <_ZN17Adafruit_NeoPixel6setPinEh>:

// Set the output pin number
void Adafruit_NeoPixel::setPin(uint8_t p) {
 80a041e:	b538      	push	{r3, r4, r5, lr}
    if (begun) {
 80a0420:	7803      	ldrb	r3, [r0, #0]
void Adafruit_NeoPixel::setPin(uint8_t p) {
 80a0422:	4605      	mov	r5, r0
 80a0424:	460c      	mov	r4, r1
    if (begun) {
 80a0426:	b11b      	cbz	r3, 80a0430 <_ZN17Adafruit_NeoPixel6setPinEh+0x12>
        pinMode(pin, INPUT);
 80a0428:	2100      	movs	r1, #0
 80a042a:	79c0      	ldrb	r0, [r0, #7]
 80a042c:	f002 f90e 	bl	80a264c <pinMode>
    }
    pin = p;
    if (begun) {
 80a0430:	782b      	ldrb	r3, [r5, #0]
    pin = p;
 80a0432:	71ec      	strb	r4, [r5, #7]
    if (begun) {
 80a0434:	b153      	cbz	r3, 80a044c <_ZN17Adafruit_NeoPixel6setPinEh+0x2e>
        pinMode(p, OUTPUT);
 80a0436:	b2a4      	uxth	r4, r4
 80a0438:	4620      	mov	r0, r4
 80a043a:	2101      	movs	r1, #1
 80a043c:	f002 f906 	bl	80a264c <pinMode>
        digitalWrite(p, LOW);
 80a0440:	4620      	mov	r0, r4
    }
}
 80a0442:	e8bd 4038 	ldmia.w	sp!, {r3, r4, r5, lr}
        digitalWrite(p, LOW);
 80a0446:	2100      	movs	r1, #0
 80a0448:	f002 b911 	b.w	80a266e <digitalWrite>
}
 80a044c:	bd38      	pop	{r3, r4, r5, pc}

080a044e <_ZN17Adafruit_NeoPixelC1Ethh>:
Adafruit_NeoPixel::Adafruit_NeoPixel(uint16_t n, uint8_t p, uint8_t t) :
 80a044e:	b570      	push	{r4, r5, r6, lr}
  begun(false), type(t), brightness(0), pixels(NULL), endTime(0)
 80a0450:	2500      	movs	r5, #0
Adafruit_NeoPixel::Adafruit_NeoPixel(uint16_t n, uint8_t p, uint8_t t) :
 80a0452:	4604      	mov	r4, r0
 80a0454:	4616      	mov	r6, r2
  begun(false), type(t), brightness(0), pixels(NULL), endTime(0)
 80a0456:	7183      	strb	r3, [r0, #6]
 80a0458:	e9c0 5503 	strd	r5, r5, [r0, #12]
 80a045c:	7005      	strb	r5, [r0, #0]
 80a045e:	7205      	strb	r5, [r0, #8]
  updateLength(n);
 80a0460:	f7ff ffb4 	bl	80a03cc <_ZN17Adafruit_NeoPixel12updateLengthEt>
  setPin(p);
 80a0464:	4620      	mov	r0, r4
 80a0466:	4631      	mov	r1, r6
 80a0468:	f7ff ffd9 	bl	80a041e <_ZN17Adafruit_NeoPixel6setPinEh>
}
 80a046c:	4620      	mov	r0, r4
 80a046e:	bd70      	pop	{r4, r5, r6, pc}

080a0470 <_ZN17Adafruit_NeoPixel4showEv>:

void Adafruit_NeoPixel::show(void) {
  if(!pixels) return;
 80a0470:	68c3      	ldr	r3, [r0, #12]
 80a0472:	2b00      	cmp	r3, #0
 80a0474:	f000 8441 	beq.w	80a0cfa <_ZN17Adafruit_NeoPixel4showEv+0x88a>
void Adafruit_NeoPixel::show(void) {
 80a0478:	b5f0      	push	{r4, r5, r6, r7, lr}
 80a047a:	7983      	ldrb	r3, [r0, #6]
 80a047c:	4604      	mov	r4, r0
  // the function will simply hold off (if needed) on issuing the
  // subsequent round of data until the latch time has elapsed.  This
  // allows the mainline code to start generating the next frame of data
  // rather than stalling for the latch.
  uint32_t wait_time; // wait time in microseconds.
  switch(type) {
 80a047e:	3b02      	subs	r3, #2
 80a0480:	b2db      	uxtb	r3, r3
 80a0482:	2b04      	cmp	r3, #4
 80a0484:	bf8c      	ite	hi
 80a0486:	2532      	movhi	r5, #50	; 0x32
 80a0488:	4a28      	ldrls	r2, [pc, #160]	; (80a052c <_ZN17Adafruit_NeoPixel4showEv+0xbc>)
void Adafruit_NeoPixel::show(void) {
 80a048a:	b087      	sub	sp, #28
 80a048c:	bf98      	it	ls
 80a048e:	f852 5023 	ldrls.w	r5, [r2, r3, lsl #2]
inline unsigned long micros(void) { return HAL_Timer_Get_Micro_Seconds(); }
 80a0492:	f001 fa25 	bl	80a18e0 <HAL_Timer_Get_Micro_Seconds>
    case WS2812B2_FAST:
    default: {   // default = 50us reset pulse
        wait_time = 50L;
      } break;
  }
  while((micros() - endTime) < wait_time);
 80a0496:	6923      	ldr	r3, [r4, #16]
 80a0498:	1ac0      	subs	r0, r0, r3
 80a049a:	42a8      	cmp	r0, r5
 80a049c:	d3f9      	bcc.n	80a0492 <_ZN17Adafruit_NeoPixel4showEv+0x22>
  This function disables IRQ interrupts by setting the I-bit in the CPSR.
  Can only be executed in Privileged modes.
 */
__attribute__( ( always_inline ) ) __STATIC_INLINE void __disable_irq(void)
{
  __ASM volatile ("cpsid i");
 80a049e:	b672      	cpsid	i
  __disable_irq(); // Need 100% focus on instruction timing

  volatile uint32_t
    c,    // 24-bit/32-bit pixel color
    mask; // 1-bit mask
  volatile uint16_t i = numBytes; // Output loop counter
 80a04a0:	88a3      	ldrh	r3, [r4, #4]
    g,              // Current green byte value
    r,              // Current red byte value
    b,              // Current blue byte value
    w;              // Current white byte value

  if(type == WS2812B || type == WS2812B_FAST) { // Same as WS2812 & WS2813, 800 KHz bitstream
 80a04a2:	79a5      	ldrb	r5, [r4, #6]
  volatile uint16_t i = numBytes; // Output loop counter
 80a04a4:	f8ad 300a 	strh.w	r3, [sp, #10]
    while(i) { // While bytes left... (3 bytes = 1 pixel)
 80a04a8:	f8bd 300a 	ldrh.w	r3, [sp, #10]
  if(type == WS2812B || type == WS2812B_FAST) { // Same as WS2812 & WS2813, 800 KHz bitstream
 80a04ac:	2d02      	cmp	r5, #2
   *ptr = pixels,   // Pointer to next byte
 80a04ae:	68e1      	ldr	r1, [r4, #12]
    while(i) { // While bytes left... (3 bytes = 1 pixel)
 80a04b0:	b29b      	uxth	r3, r3
  if(type == WS2812B || type == WS2812B_FAST) { // Same as WS2812 & WS2813, 800 KHz bitstream
 80a04b2:	f000 826e 	beq.w	80a0992 <_ZN17Adafruit_NeoPixel4showEv+0x522>
 80a04b6:	2d07      	cmp	r5, #7
 80a04b8:	f000 826b 	beq.w	80a0992 <_ZN17Adafruit_NeoPixel4showEv+0x522>
        }
        mask >>= 1;
      } while ( ++j < 24 ); // ... pixel done
    } // end while(i) ... no more pixels
  }
  else if(type == SK6812RGBW) { // similar to WS2812, 800 KHz bitstream but with RGB+W components
 80a04bc:	2d06      	cmp	r5, #6
 80a04be:	f000 841d 	beq.w	80a0cfc <_ZN17Adafruit_NeoPixel4showEv+0x88c>
        }
        mask >>= 1;
      } while ( ++j < 32 ); // ... pixel done
    } // end while(i) ... no more pixels
  }
  else if(type == WS2812B2 || type == WS2812B2_FAST) { // WS2812B with DWT timer
 80a04c2:	2d05      	cmp	r5, #5
 80a04c4:	f000 83a1 	beq.w	80a0c0a <_ZN17Adafruit_NeoPixel4showEv+0x79a>
 80a04c8:	2d08      	cmp	r5, #8
 80a04ca:	f000 839e 	beq.w	80a0c0a <_ZN17Adafruit_NeoPixel4showEv+0x79a>
        mask >>= 1;
      } while ( ++j < 24 ); // ... pixel done
    } // end while(i) ... no more pixels
#endif
  }
  else if(type == WS2811) { // WS2811, 400 KHz bitstream
 80a04ce:	2d00      	cmp	r5, #0
 80a04d0:	f040 854f 	bne.w	80a0f72 <_ZN17Adafruit_NeoPixel4showEv+0xb02>
    while(i) { // While bytes left... (3 bytes = 1 pixel)
 80a04d4:	2b00      	cmp	r3, #0
 80a04d6:	f000 8392 	beq.w	80a0bfe <_ZN17Adafruit_NeoPixel4showEv+0x78e>
      mask = 0x800000; // reset the mask
 80a04da:	f44f 0600 	mov.w	r6, #8388608	; 0x800000
 80a04de:	4a14      	ldr	r2, [pc, #80]	; (80a0530 <_ZN17Adafruit_NeoPixel4showEv+0xc0>)
 80a04e0:	9604      	str	r6, [sp, #16]
      i = i-3;      // decrement bytes remaining
 80a04e2:	f8bd 300a 	ldrh.w	r3, [sp, #10]
      r = *ptr++;   // Next red byte value
      g = *ptr++;   // Next green byte value
      b = *ptr++;   // Next blue byte value
 80a04e6:	3103      	adds	r1, #3
      i = i-3;      // decrement bytes remaining
 80a04e8:	3b03      	subs	r3, #3
 80a04ea:	b29b      	uxth	r3, r3
 80a04ec:	f8ad 300a 	strh.w	r3, [sp, #10]
      r = *ptr++;   // Next red byte value
 80a04f0:	f811 3c03 	ldrb.w	r3, [r1, #-3]
 80a04f4:	b2db      	uxtb	r3, r3
 80a04f6:	f88d 3007 	strb.w	r3, [sp, #7]
      g = *ptr++;   // Next green byte value
 80a04fa:	f811 3c02 	ldrb.w	r3, [r1, #-2]
 80a04fe:	b2db      	uxtb	r3, r3
 80a0500:	f88d 3006 	strb.w	r3, [sp, #6]
      b = *ptr++;   // Next blue byte value
 80a0504:	f811 3c01 	ldrb.w	r3, [r1, #-1]
 80a0508:	b2db      	uxtb	r3, r3
 80a050a:	f88d 3008 	strb.w	r3, [sp, #8]
      c = ((uint32_t)r << 16) | ((uint32_t)g <<  8) | b; // Pack the next 3 bytes to keep timing tight
 80a050e:	f89d 0007 	ldrb.w	r0, [sp, #7]
 80a0512:	f89d 3006 	ldrb.w	r3, [sp, #6]
 80a0516:	021b      	lsls	r3, r3, #8
 80a0518:	ea43 4300 	orr.w	r3, r3, r0, lsl #16
 80a051c:	f89d 0008 	ldrb.w	r0, [sp, #8]
 80a0520:	4303      	orrs	r3, r0
 80a0522:	9303      	str	r3, [sp, #12]
      j = 0;        // reset the 24-bit counter
 80a0524:	f88d 5005 	strb.w	r5, [sp, #5]
 80a0528:	e11b      	b.n	80a0762 <_ZN17Adafruit_NeoPixel4showEv+0x2f2>
 80a052a:	bf00      	nop
 80a052c:	080a3600 	.word	0x080a3600
 80a0530:	200000b0 	.word	0x200000b0
        if (c & mask) { // if masked bit is high
          // WS2811 spec             1.20us HIGH
          // Adafruit on Arduino    (meas. 1.25us)
          // This lib on Spark Core (meas. 1.25us)
          // This lib on Photon     (meas. 1.25us)
          asm volatile(
 80a0534:	4600      	mov	r0, r0
 80a0536:	bf00      	nop
 80a0538:	bf00      	nop
 80a053a:	bf00      	nop
 80a053c:	bf00      	nop
 80a053e:	bf00      	nop
 80a0540:	bf00      	nop
 80a0542:	bf00      	nop
 80a0544:	bf00      	nop
 80a0546:	bf00      	nop
 80a0548:	bf00      	nop
 80a054a:	bf00      	nop
 80a054c:	bf00      	nop
 80a054e:	bf00      	nop
 80a0550:	bf00      	nop
 80a0552:	bf00      	nop
 80a0554:	bf00      	nop
 80a0556:	bf00      	nop
 80a0558:	bf00      	nop
 80a055a:	bf00      	nop
 80a055c:	bf00      	nop
 80a055e:	bf00      	nop
 80a0560:	bf00      	nop
 80a0562:	bf00      	nop
 80a0564:	bf00      	nop
 80a0566:	bf00      	nop
 80a0568:	bf00      	nop
 80a056a:	bf00      	nop
 80a056c:	bf00      	nop
 80a056e:	bf00      	nop
 80a0570:	bf00      	nop
 80a0572:	bf00      	nop
 80a0574:	bf00      	nop
 80a0576:	bf00      	nop
 80a0578:	bf00      	nop
 80a057a:	bf00      	nop
 80a057c:	bf00      	nop
 80a057e:	bf00      	nop
 80a0580:	bf00      	nop
 80a0582:	bf00      	nop
 80a0584:	bf00      	nop
 80a0586:	bf00      	nop
 80a0588:	bf00      	nop
 80a058a:	bf00      	nop
 80a058c:	bf00      	nop
 80a058e:	bf00      	nop
 80a0590:	bf00      	nop
 80a0592:	bf00      	nop
 80a0594:	bf00      	nop
 80a0596:	bf00      	nop
 80a0598:	bf00      	nop
 80a059a:	bf00      	nop
 80a059c:	bf00      	nop
 80a059e:	bf00      	nop
 80a05a0:	bf00      	nop
 80a05a2:	bf00      	nop
 80a05a4:	bf00      	nop
 80a05a6:	bf00      	nop
 80a05a8:	bf00      	nop
 80a05aa:	bf00      	nop
 80a05ac:	bf00      	nop
 80a05ae:	bf00      	nop
 80a05b0:	bf00      	nop
 80a05b2:	bf00      	nop
 80a05b4:	bf00      	nop
 80a05b6:	bf00      	nop
 80a05b8:	bf00      	nop
 80a05ba:	bf00      	nop
 80a05bc:	bf00      	nop
 80a05be:	bf00      	nop
 80a05c0:	bf00      	nop
 80a05c2:	bf00      	nop
 80a05c4:	bf00      	nop
 80a05c6:	bf00      	nop
 80a05c8:	bf00      	nop
 80a05ca:	bf00      	nop
 80a05cc:	bf00      	nop
 80a05ce:	bf00      	nop
 80a05d0:	bf00      	nop
 80a05d2:	bf00      	nop
 80a05d4:	bf00      	nop
 80a05d6:	bf00      	nop
 80a05d8:	bf00      	nop
 80a05da:	bf00      	nop
 80a05dc:	bf00      	nop
 80a05de:	bf00      	nop
 80a05e0:	bf00      	nop
 80a05e2:	bf00      	nop
 80a05e4:	bf00      	nop
 80a05e6:	bf00      	nop
 80a05e8:	bf00      	nop
 80a05ea:	bf00      	nop
 80a05ec:	bf00      	nop
 80a05ee:	bf00      	nop
 80a05f0:	bf00      	nop
 80a05f2:	bf00      	nop
 80a05f4:	bf00      	nop
 80a05f6:	bf00      	nop
 80a05f8:	bf00      	nop
 80a05fa:	bf00      	nop
 80a05fc:	bf00      	nop
 80a05fe:	bf00      	nop
 80a0600:	bf00      	nop
 80a0602:	bf00      	nop
 80a0604:	bf00      	nop
 80a0606:	bf00      	nop
 80a0608:	bf00      	nop
 80a060a:	bf00      	nop
 80a060c:	bf00      	nop
 80a060e:	bf00      	nop
 80a0610:	bf00      	nop
 80a0612:	bf00      	nop
 80a0614:	bf00      	nop
 80a0616:	bf00      	nop
 80a0618:	bf00      	nop
 80a061a:	bf00      	nop
 80a061c:	bf00      	nop
 80a061e:	bf00      	nop
 80a0620:	bf00      	nop
 80a0622:	bf00      	nop
 80a0624:	bf00      	nop
 80a0626:	bf00      	nop
 80a0628:	bf00      	nop
 80a062a:	bf00      	nop
 80a062c:	bf00      	nop
 80a062e:	bf00      	nop
 80a0630:	bf00      	nop
 80a0632:	bf00      	nop
 80a0634:	bf00      	nop
 80a0636:	bf00      	nop
 80a0638:	bf00      	nop
 80a063a:	bf00      	nop
            ::: "r0", "cc", "memory");
          // WS2811 spec             1.30us LOW
          // Adafruit on Arduino    (meas. 1.25us)
          // This lib on Spark Core (meas. 1.24us)
          // This lib on Photon     (meas. 1.24us)
          pinSet(pin, LOW); // LOW
 80a063c:	79e3      	ldrb	r3, [r4, #7]
 80a063e:	6810      	ldr	r0, [r2, #0]
 80a0640:	ebc3 03c3 	rsb	r3, r3, r3, lsl #3
 80a0644:	eb00 0783 	add.w	r7, r0, r3, lsl #2
 80a0648:	f850 3023 	ldr.w	r3, [r0, r3, lsl #2]
 80a064c:	88b8      	ldrh	r0, [r7, #4]
 80a064e:	8358      	strh	r0, [r3, #26]
          asm volatile(
 80a0650:	4600      	mov	r0, r0
 80a0652:	bf00      	nop
 80a0654:	bf00      	nop
 80a0656:	bf00      	nop
 80a0658:	bf00      	nop
 80a065a:	bf00      	nop
 80a065c:	bf00      	nop
 80a065e:	bf00      	nop
 80a0660:	bf00      	nop
 80a0662:	bf00      	nop
 80a0664:	bf00      	nop
 80a0666:	bf00      	nop
 80a0668:	bf00      	nop
 80a066a:	bf00      	nop
 80a066c:	bf00      	nop
 80a066e:	bf00      	nop
 80a0670:	bf00      	nop
 80a0672:	bf00      	nop
 80a0674:	bf00      	nop
 80a0676:	bf00      	nop
 80a0678:	bf00      	nop
 80a067a:	bf00      	nop
 80a067c:	bf00      	nop
 80a067e:	bf00      	nop
 80a0680:	bf00      	nop
 80a0682:	bf00      	nop
 80a0684:	bf00      	nop
 80a0686:	bf00      	nop
 80a0688:	bf00      	nop
 80a068a:	bf00      	nop
 80a068c:	bf00      	nop
 80a068e:	bf00      	nop
 80a0690:	bf00      	nop
 80a0692:	bf00      	nop
 80a0694:	bf00      	nop
 80a0696:	bf00      	nop
 80a0698:	bf00      	nop
 80a069a:	bf00      	nop
 80a069c:	bf00      	nop
 80a069e:	bf00      	nop
 80a06a0:	bf00      	nop
 80a06a2:	bf00      	nop
 80a06a4:	bf00      	nop
 80a06a6:	bf00      	nop
 80a06a8:	bf00      	nop
 80a06aa:	bf00      	nop
 80a06ac:	bf00      	nop
 80a06ae:	bf00      	nop
 80a06b0:	bf00      	nop
 80a06b2:	bf00      	nop
 80a06b4:	bf00      	nop
 80a06b6:	bf00      	nop
 80a06b8:	bf00      	nop
 80a06ba:	bf00      	nop
 80a06bc:	bf00      	nop
 80a06be:	bf00      	nop
 80a06c0:	bf00      	nop
 80a06c2:	bf00      	nop
 80a06c4:	bf00      	nop
 80a06c6:	bf00      	nop
 80a06c8:	bf00      	nop
 80a06ca:	bf00      	nop
 80a06cc:	bf00      	nop
 80a06ce:	bf00      	nop
 80a06d0:	bf00      	nop
 80a06d2:	bf00      	nop
 80a06d4:	bf00      	nop
 80a06d6:	bf00      	nop
 80a06d8:	bf00      	nop
 80a06da:	bf00      	nop
 80a06dc:	bf00      	nop
 80a06de:	bf00      	nop
 80a06e0:	bf00      	nop
 80a06e2:	bf00      	nop
 80a06e4:	bf00      	nop
 80a06e6:	bf00      	nop
 80a06e8:	bf00      	nop
 80a06ea:	bf00      	nop
 80a06ec:	bf00      	nop
 80a06ee:	bf00      	nop
 80a06f0:	bf00      	nop
 80a06f2:	bf00      	nop
 80a06f4:	bf00      	nop
 80a06f6:	bf00      	nop
 80a06f8:	bf00      	nop
 80a06fa:	bf00      	nop
 80a06fc:	bf00      	nop
 80a06fe:	bf00      	nop
 80a0700:	bf00      	nop
 80a0702:	bf00      	nop
 80a0704:	bf00      	nop
 80a0706:	bf00      	nop
 80a0708:	bf00      	nop
 80a070a:	bf00      	nop
 80a070c:	bf00      	nop
 80a070e:	bf00      	nop
 80a0710:	bf00      	nop
 80a0712:	bf00      	nop
 80a0714:	bf00      	nop
 80a0716:	bf00      	nop
 80a0718:	bf00      	nop
 80a071a:	bf00      	nop
 80a071c:	bf00      	nop
 80a071e:	bf00      	nop
 80a0720:	bf00      	nop
 80a0722:	bf00      	nop
 80a0724:	bf00      	nop
 80a0726:	bf00      	nop
 80a0728:	bf00      	nop
 80a072a:	bf00      	nop
 80a072c:	bf00      	nop
 80a072e:	bf00      	nop
 80a0730:	bf00      	nop
 80a0732:	bf00      	nop
 80a0734:	bf00      	nop
 80a0736:	bf00      	nop
 80a0738:	bf00      	nop
 80a073a:	bf00      	nop
 80a073c:	bf00      	nop
 80a073e:	bf00      	nop
 80a0740:	bf00      	nop
 80a0742:	bf00      	nop
 80a0744:	bf00      	nop
 80a0746:	bf00      	nop
 80a0748:	bf00      	nop
            "nop" "\n\t" "nop" "\n\t" "nop" "\n\t" "nop" "\n\t" "nop" "\n\t"
            "nop" "\n\t" "nop" "\n\t" "nop" "\n\t" "nop" "\n\t" "nop" "\n\t"
#endif
            ::: "r0", "cc", "memory");
        }
        mask >>= 1;
 80a074a:	9b04      	ldr	r3, [sp, #16]
 80a074c:	085b      	lsrs	r3, r3, #1
 80a074e:	9304      	str	r3, [sp, #16]
      } while ( ++j < 24 ); // ... pixel done
 80a0750:	f89d 3005 	ldrb.w	r3, [sp, #5]
 80a0754:	3301      	adds	r3, #1
 80a0756:	b2db      	uxtb	r3, r3
 80a0758:	2b17      	cmp	r3, #23
 80a075a:	f88d 3005 	strb.w	r3, [sp, #5]
 80a075e:	f200 8723 	bhi.w	80a15a8 <_ZN17Adafruit_NeoPixel4showEv+0x1138>
        pinSet(pin, HIGH); // HIGH
 80a0762:	79e3      	ldrb	r3, [r4, #7]
 80a0764:	6810      	ldr	r0, [r2, #0]
 80a0766:	ebc3 03c3 	rsb	r3, r3, r3, lsl #3
 80a076a:	eb00 0783 	add.w	r7, r0, r3, lsl #2
 80a076e:	f850 3023 	ldr.w	r3, [r0, r3, lsl #2]
 80a0772:	88b8      	ldrh	r0, [r7, #4]
 80a0774:	8318      	strh	r0, [r3, #24]
        if (c & mask) { // if masked bit is high
 80a0776:	9803      	ldr	r0, [sp, #12]
 80a0778:	9b04      	ldr	r3, [sp, #16]
 80a077a:	4218      	tst	r0, r3
 80a077c:	f47f aeda 	bne.w	80a0534 <_ZN17Adafruit_NeoPixel4showEv+0xc4>
          asm volatile(
 80a0780:	4600      	mov	r0, r0
 80a0782:	bf00      	nop
 80a0784:	bf00      	nop
 80a0786:	bf00      	nop
 80a0788:	bf00      	nop
 80a078a:	bf00      	nop
 80a078c:	bf00      	nop
 80a078e:	bf00      	nop
 80a0790:	bf00      	nop
 80a0792:	bf00      	nop
 80a0794:	bf00      	nop
 80a0796:	bf00      	nop
 80a0798:	bf00      	nop
 80a079a:	bf00      	nop
 80a079c:	bf00      	nop
 80a079e:	bf00      	nop
 80a07a0:	bf00      	nop
 80a07a2:	bf00      	nop
 80a07a4:	bf00      	nop
 80a07a6:	bf00      	nop
 80a07a8:	bf00      	nop
 80a07aa:	bf00      	nop
 80a07ac:	bf00      	nop
 80a07ae:	bf00      	nop
 80a07b0:	bf00      	nop
 80a07b2:	bf00      	nop
 80a07b4:	bf00      	nop
 80a07b6:	bf00      	nop
 80a07b8:	bf00      	nop
 80a07ba:	bf00      	nop
 80a07bc:	bf00      	nop
 80a07be:	bf00      	nop
 80a07c0:	bf00      	nop
 80a07c2:	bf00      	nop
 80a07c4:	bf00      	nop
 80a07c6:	bf00      	nop
 80a07c8:	bf00      	nop
 80a07ca:	bf00      	nop
 80a07cc:	bf00      	nop
 80a07ce:	bf00      	nop
 80a07d0:	bf00      	nop
          pinSet(pin, LOW); // LOW
 80a07d2:	79e3      	ldrb	r3, [r4, #7]
 80a07d4:	6810      	ldr	r0, [r2, #0]
 80a07d6:	ebc3 03c3 	rsb	r3, r3, r3, lsl #3
 80a07da:	eb00 0783 	add.w	r7, r0, r3, lsl #2
 80a07de:	f850 3023 	ldr.w	r3, [r0, r3, lsl #2]
 80a07e2:	88b8      	ldrh	r0, [r7, #4]
 80a07e4:	8358      	strh	r0, [r3, #26]
          asm volatile(
 80a07e6:	4600      	mov	r0, r0
 80a07e8:	bf00      	nop
 80a07ea:	bf00      	nop
 80a07ec:	bf00      	nop
 80a07ee:	bf00      	nop
 80a07f0:	bf00      	nop
 80a07f2:	bf00      	nop
 80a07f4:	bf00      	nop
 80a07f6:	bf00      	nop
 80a07f8:	bf00      	nop
 80a07fa:	bf00      	nop
 80a07fc:	bf00      	nop
 80a07fe:	bf00      	nop
 80a0800:	bf00      	nop
 80a0802:	bf00      	nop
 80a0804:	bf00      	nop
 80a0806:	bf00      	nop
 80a0808:	bf00      	nop
 80a080a:	bf00      	nop
 80a080c:	bf00      	nop
 80a080e:	bf00      	nop
 80a0810:	bf00      	nop
 80a0812:	bf00      	nop
 80a0814:	bf00      	nop
 80a0816:	bf00      	nop
 80a0818:	bf00      	nop
 80a081a:	bf00      	nop
 80a081c:	bf00      	nop
 80a081e:	bf00      	nop
 80a0820:	bf00      	nop
 80a0822:	bf00      	nop
 80a0824:	bf00      	nop
 80a0826:	bf00      	nop
 80a0828:	bf00      	nop
 80a082a:	bf00      	nop
 80a082c:	bf00      	nop
 80a082e:	bf00      	nop
 80a0830:	bf00      	nop
 80a0832:	bf00      	nop
 80a0834:	bf00      	nop
 80a0836:	bf00      	nop
 80a0838:	bf00      	nop
 80a083a:	bf00      	nop
 80a083c:	bf00      	nop
 80a083e:	bf00      	nop
 80a0840:	bf00      	nop
 80a0842:	bf00      	nop
 80a0844:	bf00      	nop
 80a0846:	bf00      	nop
 80a0848:	bf00      	nop
 80a084a:	bf00      	nop
 80a084c:	bf00      	nop
 80a084e:	bf00      	nop
 80a0850:	bf00      	nop
 80a0852:	bf00      	nop
 80a0854:	bf00      	nop
 80a0856:	bf00      	nop
 80a0858:	bf00      	nop
 80a085a:	bf00      	nop
 80a085c:	bf00      	nop
 80a085e:	bf00      	nop
 80a0860:	bf00      	nop
 80a0862:	bf00      	nop
 80a0864:	bf00      	nop
 80a0866:	bf00      	nop
 80a0868:	bf00      	nop
 80a086a:	bf00      	nop
 80a086c:	bf00      	nop
 80a086e:	bf00      	nop
 80a0870:	bf00      	nop
 80a0872:	bf00      	nop
 80a0874:	bf00      	nop
 80a0876:	bf00      	nop
 80a0878:	bf00      	nop
 80a087a:	bf00      	nop
 80a087c:	bf00      	nop
 80a087e:	bf00      	nop
 80a0880:	bf00      	nop
 80a0882:	bf00      	nop
 80a0884:	bf00      	nop
 80a0886:	bf00      	nop
 80a0888:	bf00      	nop
 80a088a:	bf00      	nop
 80a088c:	bf00      	nop
 80a088e:	bf00      	nop
 80a0890:	bf00      	nop
 80a0892:	bf00      	nop
 80a0894:	bf00      	nop
 80a0896:	bf00      	nop
 80a0898:	bf00      	nop
 80a089a:	bf00      	nop
 80a089c:	bf00      	nop
 80a089e:	bf00      	nop
 80a08a0:	bf00      	nop
 80a08a2:	bf00      	nop
 80a08a4:	bf00      	nop
 80a08a6:	bf00      	nop
 80a08a8:	bf00      	nop
 80a08aa:	bf00      	nop
 80a08ac:	bf00      	nop
 80a08ae:	bf00      	nop
 80a08b0:	bf00      	nop
 80a08b2:	bf00      	nop
 80a08b4:	bf00      	nop
 80a08b6:	bf00      	nop
 80a08b8:	bf00      	nop
 80a08ba:	bf00      	nop
 80a08bc:	bf00      	nop
 80a08be:	bf00      	nop
 80a08c0:	bf00      	nop
 80a08c2:	bf00      	nop
 80a08c4:	bf00      	nop
 80a08c6:	bf00      	nop
 80a08c8:	bf00      	nop
 80a08ca:	bf00      	nop
 80a08cc:	bf00      	nop
 80a08ce:	bf00      	nop
 80a08d0:	bf00      	nop
 80a08d2:	bf00      	nop
 80a08d4:	bf00      	nop
 80a08d6:	bf00      	nop
 80a08d8:	bf00      	nop
 80a08da:	bf00      	nop
 80a08dc:	bf00      	nop
 80a08de:	bf00      	nop
 80a08e0:	bf00      	nop
 80a08e2:	bf00      	nop
 80a08e4:	bf00      	nop
 80a08e6:	bf00      	nop
 80a08e8:	bf00      	nop
 80a08ea:	bf00      	nop
 80a08ec:	bf00      	nop
 80a08ee:	bf00      	nop
 80a08f0:	bf00      	nop
 80a08f2:	bf00      	nop
 80a08f4:	bf00      	nop
 80a08f6:	bf00      	nop
 80a08f8:	bf00      	nop
 80a08fa:	bf00      	nop
 80a08fc:	bf00      	nop
 80a08fe:	bf00      	nop
 80a0900:	bf00      	nop
 80a0902:	bf00      	nop
 80a0904:	bf00      	nop
 80a0906:	bf00      	nop
 80a0908:	bf00      	nop
 80a090a:	bf00      	nop
 80a090c:	bf00      	nop
 80a090e:	bf00      	nop
 80a0910:	bf00      	nop
 80a0912:	bf00      	nop
 80a0914:	bf00      	nop
 80a0916:	bf00      	nop
 80a0918:	bf00      	nop
 80a091a:	bf00      	nop
 80a091c:	bf00      	nop
 80a091e:	bf00      	nop
 80a0920:	bf00      	nop
 80a0922:	bf00      	nop
 80a0924:	bf00      	nop
 80a0926:	bf00      	nop
 80a0928:	bf00      	nop
 80a092a:	bf00      	nop
 80a092c:	bf00      	nop
 80a092e:	bf00      	nop
 80a0930:	bf00      	nop
 80a0932:	bf00      	nop
 80a0934:	bf00      	nop
 80a0936:	bf00      	nop
 80a0938:	bf00      	nop
 80a093a:	bf00      	nop
 80a093c:	bf00      	nop
 80a093e:	bf00      	nop
 80a0940:	bf00      	nop
 80a0942:	bf00      	nop
 80a0944:	bf00      	nop
 80a0946:	bf00      	nop
 80a0948:	bf00      	nop
 80a094a:	bf00      	nop
 80a094c:	bf00      	nop
 80a094e:	bf00      	nop
 80a0950:	bf00      	nop
 80a0952:	bf00      	nop
 80a0954:	bf00      	nop
 80a0956:	bf00      	nop
 80a0958:	bf00      	nop
 80a095a:	bf00      	nop
 80a095c:	bf00      	nop
 80a095e:	bf00      	nop
 80a0960:	bf00      	nop
 80a0962:	bf00      	nop
 80a0964:	bf00      	nop
 80a0966:	bf00      	nop
 80a0968:	bf00      	nop
 80a096a:	bf00      	nop
 80a096c:	bf00      	nop
 80a096e:	bf00      	nop
 80a0970:	bf00      	nop
 80a0972:	bf00      	nop
 80a0974:	bf00      	nop
 80a0976:	bf00      	nop
 80a0978:	bf00      	nop
 80a097a:	bf00      	nop
 80a097c:	bf00      	nop
 80a097e:	bf00      	nop
 80a0980:	bf00      	nop
 80a0982:	bf00      	nop
 80a0984:	bf00      	nop
 80a0986:	bf00      	nop
 80a0988:	bf00      	nop
 80a098a:	bf00      	nop
 80a098c:	bf00      	nop
 80a098e:	bf00      	nop
 80a0990:	e6db      	b.n	80a074a <_ZN17Adafruit_NeoPixel4showEv+0x2da>
    while(i) { // While bytes left... (3 bytes = 1 pixel)
 80a0992:	2b00      	cmp	r3, #0
 80a0994:	f000 8133 	beq.w	80a0bfe <_ZN17Adafruit_NeoPixel4showEv+0x78e>
      mask = 0x800000; // reset the mask
 80a0998:	f44f 0500 	mov.w	r5, #8388608	; 0x800000
      j = 0;        // reset the 24-bit counter
 80a099c:	f04f 0c00 	mov.w	ip, #0
 80a09a0:	4a12      	ldr	r2, [pc, #72]	; (80a09ec <_ZN17Adafruit_NeoPixel4showEv+0x57c>)
      mask = 0x800000; // reset the mask
 80a09a2:	4608      	mov	r0, r1
 80a09a4:	9504      	str	r5, [sp, #16]
      i = i-3;      // decrement bytes remaining
 80a09a6:	f8bd 300a 	ldrh.w	r3, [sp, #10]
 80a09aa:	3103      	adds	r1, #3
 80a09ac:	3b03      	subs	r3, #3
 80a09ae:	b29b      	uxth	r3, r3
 80a09b0:	f8ad 300a 	strh.w	r3, [sp, #10]
      g = *ptr++;   // Next green byte value
 80a09b4:	f811 3c03 	ldrb.w	r3, [r1, #-3]
 80a09b8:	b2db      	uxtb	r3, r3
 80a09ba:	f88d 3006 	strb.w	r3, [sp, #6]
      r = *ptr++;   // Next red byte value
 80a09be:	f811 3c02 	ldrb.w	r3, [r1, #-2]
 80a09c2:	b2db      	uxtb	r3, r3
 80a09c4:	f88d 3007 	strb.w	r3, [sp, #7]
      b = *ptr++;   // Next blue byte value
 80a09c8:	7883      	ldrb	r3, [r0, #2]
 80a09ca:	b2db      	uxtb	r3, r3
 80a09cc:	f88d 3008 	strb.w	r3, [sp, #8]
      c = ((uint32_t)g << 16) | ((uint32_t)r <<  8) | b; // Pack the next 3 bytes to keep timing tight
 80a09d0:	f89d 6006 	ldrb.w	r6, [sp, #6]
 80a09d4:	f89d 3007 	ldrb.w	r3, [sp, #7]
 80a09d8:	f89d 0008 	ldrb.w	r0, [sp, #8]
 80a09dc:	021b      	lsls	r3, r3, #8
 80a09de:	ea43 4306 	orr.w	r3, r3, r6, lsl #16
 80a09e2:	4303      	orrs	r3, r0
 80a09e4:	9303      	str	r3, [sp, #12]
      j = 0;        // reset the 24-bit counter
 80a09e6:	f88d c005 	strb.w	ip, [sp, #5]
 80a09ea:	e07f      	b.n	80a0aec <_ZN17Adafruit_NeoPixel4showEv+0x67c>
 80a09ec:	200000b0 	.word	0x200000b0
          asm volatile(
 80a09f0:	4600      	mov	r0, r0
 80a09f2:	bf00      	nop
 80a09f4:	bf00      	nop
 80a09f6:	bf00      	nop
 80a09f8:	bf00      	nop
 80a09fa:	bf00      	nop
 80a09fc:	bf00      	nop
 80a09fe:	bf00      	nop
 80a0a00:	bf00      	nop
 80a0a02:	bf00      	nop
 80a0a04:	bf00      	nop
 80a0a06:	bf00      	nop
 80a0a08:	bf00      	nop
 80a0a0a:	bf00      	nop
 80a0a0c:	bf00      	nop
 80a0a0e:	bf00      	nop
 80a0a10:	bf00      	nop
 80a0a12:	bf00      	nop
 80a0a14:	bf00      	nop
 80a0a16:	bf00      	nop
 80a0a18:	bf00      	nop
 80a0a1a:	bf00      	nop
 80a0a1c:	bf00      	nop
 80a0a1e:	bf00      	nop
 80a0a20:	bf00      	nop
 80a0a22:	bf00      	nop
 80a0a24:	bf00      	nop
 80a0a26:	bf00      	nop
 80a0a28:	bf00      	nop
 80a0a2a:	bf00      	nop
 80a0a2c:	bf00      	nop
 80a0a2e:	bf00      	nop
 80a0a30:	bf00      	nop
 80a0a32:	bf00      	nop
 80a0a34:	bf00      	nop
 80a0a36:	bf00      	nop
 80a0a38:	bf00      	nop
 80a0a3a:	bf00      	nop
 80a0a3c:	bf00      	nop
 80a0a3e:	bf00      	nop
 80a0a40:	bf00      	nop
 80a0a42:	bf00      	nop
 80a0a44:	bf00      	nop
 80a0a46:	bf00      	nop
 80a0a48:	bf00      	nop
 80a0a4a:	bf00      	nop
 80a0a4c:	bf00      	nop
 80a0a4e:	bf00      	nop
 80a0a50:	bf00      	nop
 80a0a52:	bf00      	nop
 80a0a54:	bf00      	nop
 80a0a56:	bf00      	nop
 80a0a58:	bf00      	nop
 80a0a5a:	bf00      	nop
 80a0a5c:	bf00      	nop
 80a0a5e:	bf00      	nop
 80a0a60:	bf00      	nop
 80a0a62:	bf00      	nop
 80a0a64:	bf00      	nop
 80a0a66:	bf00      	nop
 80a0a68:	bf00      	nop
 80a0a6a:	bf00      	nop
 80a0a6c:	bf00      	nop
 80a0a6e:	bf00      	nop
 80a0a70:	bf00      	nop
 80a0a72:	bf00      	nop
 80a0a74:	bf00      	nop
 80a0a76:	bf00      	nop
 80a0a78:	bf00      	nop
 80a0a7a:	bf00      	nop
 80a0a7c:	bf00      	nop
 80a0a7e:	bf00      	nop
 80a0a80:	bf00      	nop
 80a0a82:	bf00      	nop
 80a0a84:	bf00      	nop
 80a0a86:	bf00      	nop
 80a0a88:	bf00      	nop
          pinSet(pin, LOW); // LOW
 80a0a8a:	79e3      	ldrb	r3, [r4, #7]
 80a0a8c:	6810      	ldr	r0, [r2, #0]
 80a0a8e:	ebc3 03c3 	rsb	r3, r3, r3, lsl #3
 80a0a92:	eb00 0683 	add.w	r6, r0, r3, lsl #2
 80a0a96:	f850 3023 	ldr.w	r3, [r0, r3, lsl #2]
 80a0a9a:	88b0      	ldrh	r0, [r6, #4]
 80a0a9c:	8358      	strh	r0, [r3, #26]
          asm volatile(
 80a0a9e:	4600      	mov	r0, r0
 80a0aa0:	bf00      	nop
 80a0aa2:	bf00      	nop
 80a0aa4:	bf00      	nop
 80a0aa6:	bf00      	nop
 80a0aa8:	bf00      	nop
 80a0aaa:	bf00      	nop
 80a0aac:	bf00      	nop
 80a0aae:	bf00      	nop
 80a0ab0:	bf00      	nop
 80a0ab2:	bf00      	nop
 80a0ab4:	bf00      	nop
 80a0ab6:	bf00      	nop
 80a0ab8:	bf00      	nop
 80a0aba:	bf00      	nop
 80a0abc:	bf00      	nop
 80a0abe:	bf00      	nop
 80a0ac0:	bf00      	nop
 80a0ac2:	bf00      	nop
 80a0ac4:	bf00      	nop
 80a0ac6:	bf00      	nop
 80a0ac8:	bf00      	nop
 80a0aca:	bf00      	nop
 80a0acc:	bf00      	nop
 80a0ace:	bf00      	nop
 80a0ad0:	bf00      	nop
 80a0ad2:	bf00      	nop
        mask >>= 1;
 80a0ad4:	9b04      	ldr	r3, [sp, #16]
 80a0ad6:	085b      	lsrs	r3, r3, #1
 80a0ad8:	9304      	str	r3, [sp, #16]
      } while ( ++j < 24 ); // ... pixel done
 80a0ada:	f89d 3005 	ldrb.w	r3, [sp, #5]
 80a0ade:	3301      	adds	r3, #1
 80a0ae0:	b2db      	uxtb	r3, r3
 80a0ae2:	2b17      	cmp	r3, #23
 80a0ae4:	f88d 3005 	strb.w	r3, [sp, #5]
 80a0ae8:	f200 8083 	bhi.w	80a0bf2 <_ZN17Adafruit_NeoPixel4showEv+0x782>
        pinSet(pin, HIGH); // HIGH
 80a0aec:	79e3      	ldrb	r3, [r4, #7]
 80a0aee:	6810      	ldr	r0, [r2, #0]
 80a0af0:	ebc3 03c3 	rsb	r3, r3, r3, lsl #3
 80a0af4:	eb00 0683 	add.w	r6, r0, r3, lsl #2
 80a0af8:	f850 3023 	ldr.w	r3, [r0, r3, lsl #2]
 80a0afc:	88b0      	ldrh	r0, [r6, #4]
 80a0afe:	8318      	strh	r0, [r3, #24]
        if (c & mask) { // if masked bit is high
 80a0b00:	9803      	ldr	r0, [sp, #12]
 80a0b02:	9b04      	ldr	r3, [sp, #16]
 80a0b04:	4218      	tst	r0, r3
 80a0b06:	f47f af73 	bne.w	80a09f0 <_ZN17Adafruit_NeoPixel4showEv+0x580>
          asm volatile(
 80a0b0a:	4600      	mov	r0, r0
 80a0b0c:	bf00      	nop
 80a0b0e:	bf00      	nop
 80a0b10:	bf00      	nop
 80a0b12:	bf00      	nop
 80a0b14:	bf00      	nop
 80a0b16:	bf00      	nop
 80a0b18:	bf00      	nop
 80a0b1a:	bf00      	nop
 80a0b1c:	bf00      	nop
 80a0b1e:	bf00      	nop
 80a0b20:	bf00      	nop
 80a0b22:	bf00      	nop
 80a0b24:	bf00      	nop
 80a0b26:	bf00      	nop
 80a0b28:	bf00      	nop
 80a0b2a:	bf00      	nop
 80a0b2c:	bf00      	nop
 80a0b2e:	bf00      	nop
 80a0b30:	bf00      	nop
          pinSet(pin, LOW); // LOW
 80a0b32:	79e3      	ldrb	r3, [r4, #7]
 80a0b34:	6810      	ldr	r0, [r2, #0]
 80a0b36:	ebc3 03c3 	rsb	r3, r3, r3, lsl #3
 80a0b3a:	eb00 0683 	add.w	r6, r0, r3, lsl #2
 80a0b3e:	f850 3023 	ldr.w	r3, [r0, r3, lsl #2]
 80a0b42:	88b0      	ldrh	r0, [r6, #4]
 80a0b44:	8358      	strh	r0, [r3, #26]
          asm volatile(
 80a0b46:	4600      	mov	r0, r0
 80a0b48:	bf00      	nop
 80a0b4a:	bf00      	nop
 80a0b4c:	bf00      	nop
 80a0b4e:	bf00      	nop
 80a0b50:	bf00      	nop
 80a0b52:	bf00      	nop
 80a0b54:	bf00      	nop
 80a0b56:	bf00      	nop
 80a0b58:	bf00      	nop
 80a0b5a:	bf00      	nop
 80a0b5c:	bf00      	nop
 80a0b5e:	bf00      	nop
 80a0b60:	bf00      	nop
 80a0b62:	bf00      	nop
 80a0b64:	bf00      	nop
 80a0b66:	bf00      	nop
 80a0b68:	bf00      	nop
 80a0b6a:	bf00      	nop
 80a0b6c:	bf00      	nop
 80a0b6e:	bf00      	nop
 80a0b70:	bf00      	nop
 80a0b72:	bf00      	nop
 80a0b74:	bf00      	nop
 80a0b76:	bf00      	nop
 80a0b78:	bf00      	nop
 80a0b7a:	bf00      	nop
 80a0b7c:	bf00      	nop
 80a0b7e:	bf00      	nop
 80a0b80:	bf00      	nop
 80a0b82:	bf00      	nop
 80a0b84:	bf00      	nop
 80a0b86:	bf00      	nop
 80a0b88:	bf00      	nop
 80a0b8a:	bf00      	nop
 80a0b8c:	bf00      	nop
 80a0b8e:	bf00      	nop
 80a0b90:	bf00      	nop
 80a0b92:	bf00      	nop
 80a0b94:	bf00      	nop
 80a0b96:	bf00      	nop
 80a0b98:	bf00      	nop
 80a0b9a:	bf00      	nop
 80a0b9c:	bf00      	nop
 80a0b9e:	bf00      	nop
 80a0ba0:	bf00      	nop
 80a0ba2:	bf00      	nop
 80a0ba4:	bf00      	nop
 80a0ba6:	bf00      	nop
 80a0ba8:	bf00      	nop
 80a0baa:	bf00      	nop
 80a0bac:	bf00      	nop
 80a0bae:	bf00      	nop
 80a0bb0:	bf00      	nop
 80a0bb2:	bf00      	nop
 80a0bb4:	bf00      	nop
 80a0bb6:	bf00      	nop
 80a0bb8:	bf00      	nop
 80a0bba:	bf00      	nop
 80a0bbc:	bf00      	nop
 80a0bbe:	bf00      	nop
 80a0bc0:	bf00      	nop
 80a0bc2:	bf00      	nop
 80a0bc4:	bf00      	nop
 80a0bc6:	bf00      	nop
 80a0bc8:	bf00      	nop
 80a0bca:	bf00      	nop
 80a0bcc:	bf00      	nop
 80a0bce:	bf00      	nop
 80a0bd0:	bf00      	nop
 80a0bd2:	bf00      	nop
 80a0bd4:	bf00      	nop
 80a0bd6:	bf00      	nop
 80a0bd8:	bf00      	nop
 80a0bda:	bf00      	nop
 80a0bdc:	bf00      	nop
 80a0bde:	bf00      	nop
 80a0be0:	bf00      	nop
 80a0be2:	bf00      	nop
 80a0be4:	bf00      	nop
 80a0be6:	bf00      	nop
 80a0be8:	bf00      	nop
 80a0bea:	bf00      	nop
 80a0bec:	bf00      	nop
 80a0bee:	bf00      	nop
 80a0bf0:	e770      	b.n	80a0ad4 <_ZN17Adafruit_NeoPixel4showEv+0x664>
    while(i) { // While bytes left... (3 bytes = 1 pixel)
 80a0bf2:	f8bd 300a 	ldrh.w	r3, [sp, #10]
 80a0bf6:	b29b      	uxth	r3, r3
 80a0bf8:	2b00      	cmp	r3, #0
 80a0bfa:	f47f aed2 	bne.w	80a09a2 <_ZN17Adafruit_NeoPixel4showEv+0x532>
  __ASM volatile ("cpsie i");
 80a0bfe:	b662      	cpsie	i
 80a0c00:	f000 fe6e 	bl	80a18e0 <HAL_Timer_Get_Micro_Seconds>
  }
// END of NRF52 implementation


#endif
  endTime = micros(); // Save EOD time for latch on next call
 80a0c04:	6120      	str	r0, [r4, #16]
}
 80a0c06:	b007      	add	sp, #28
 80a0c08:	bdf0      	pop	{r4, r5, r6, r7, pc}
    while(i) { // While bytes left... (3 bytes = 1 pixel)
 80a0c0a:	2b00      	cmp	r3, #0
 80a0c0c:	d0f7      	beq.n	80a0bfe <_ZN17Adafruit_NeoPixel4showEv+0x78e>
      mask = 0x800000; // reset the mask
 80a0c0e:	f44f 0500 	mov.w	r5, #8388608	; 0x800000
      j = 0;        // reset the 24-bit counter
 80a0c12:	f04f 0c00 	mov.w	ip, #0
        pinSet(pin, HIGH); // HIGH
 80a0c16:	4b54      	ldr	r3, [pc, #336]	; (80a0d68 <_ZN17Adafruit_NeoPixel4showEv+0x8f8>)
 80a0c18:	6818      	ldr	r0, [r3, #0]
        cyc = DWT->CYCCNT;
 80a0c1a:	4b54      	ldr	r3, [pc, #336]	; (80a0d6c <_ZN17Adafruit_NeoPixel4showEv+0x8fc>)
      mask = 0x800000; // reset the mask
 80a0c1c:	9504      	str	r5, [sp, #16]
      i = i-3;      // decrement bytes remaining
 80a0c1e:	f8bd 200a 	ldrh.w	r2, [sp, #10]
      b = *ptr++;   // Next blue byte value
 80a0c22:	3103      	adds	r1, #3
      i = i-3;      // decrement bytes remaining
 80a0c24:	3a03      	subs	r2, #3
 80a0c26:	b292      	uxth	r2, r2
 80a0c28:	f8ad 200a 	strh.w	r2, [sp, #10]
      g = *ptr++;   // Next green byte value
 80a0c2c:	f811 2c03 	ldrb.w	r2, [r1, #-3]
 80a0c30:	b2d2      	uxtb	r2, r2
 80a0c32:	f88d 2006 	strb.w	r2, [sp, #6]
      r = *ptr++;   // Next red byte value
 80a0c36:	f811 2c02 	ldrb.w	r2, [r1, #-2]
 80a0c3a:	b2d2      	uxtb	r2, r2
 80a0c3c:	f88d 2007 	strb.w	r2, [sp, #7]
      b = *ptr++;   // Next blue byte value
 80a0c40:	f811 2c01 	ldrb.w	r2, [r1, #-1]
 80a0c44:	b2d2      	uxtb	r2, r2
 80a0c46:	f88d 2008 	strb.w	r2, [sp, #8]
      c = ((uint32_t)g << 16) | ((uint32_t)r <<  8) | b; // Pack the next 3 bytes to keep timing tight
 80a0c4a:	f89d 6006 	ldrb.w	r6, [sp, #6]
 80a0c4e:	f89d 2007 	ldrb.w	r2, [sp, #7]
 80a0c52:	0212      	lsls	r2, r2, #8
 80a0c54:	ea42 4206 	orr.w	r2, r2, r6, lsl #16
 80a0c58:	f89d 6008 	ldrb.w	r6, [sp, #8]
 80a0c5c:	4332      	orrs	r2, r6
 80a0c5e:	9203      	str	r2, [sp, #12]
      j = 0;        // reset the 24-bit counter
 80a0c60:	f88d c005 	strb.w	ip, [sp, #5]
        pinSet(pin, HIGH); // HIGH
 80a0c64:	79e2      	ldrb	r2, [r4, #7]
        cyc = DWT->CYCCNT;
 80a0c66:	685f      	ldr	r7, [r3, #4]
        pinSet(pin, HIGH); // HIGH
 80a0c68:	ebc2 02c2 	rsb	r2, r2, r2, lsl #3
 80a0c6c:	eb00 0682 	add.w	r6, r0, r2, lsl #2
 80a0c70:	88b6      	ldrh	r6, [r6, #4]
 80a0c72:	f850 2022 	ldr.w	r2, [r0, r2, lsl #2]
        cyc = DWT->CYCCNT;
 80a0c76:	9705      	str	r7, [sp, #20]
        pinSet(pin, HIGH); // HIGH
 80a0c78:	8316      	strh	r6, [r2, #24]
        if (c & mask) { // if masked bit is high
 80a0c7a:	9e03      	ldr	r6, [sp, #12]
 80a0c7c:	9a04      	ldr	r2, [sp, #16]
 80a0c7e:	4216      	tst	r6, r2
 80a0c80:	d025      	beq.n	80a0cce <_ZN17Adafruit_NeoPixel4showEv+0x85e>
          while(DWT->CYCCNT - cyc < CYCLES_800_T1H);
 80a0c82:	685a      	ldr	r2, [r3, #4]
 80a0c84:	9e05      	ldr	r6, [sp, #20]
 80a0c86:	1b92      	subs	r2, r2, r6
 80a0c88:	2a4f      	cmp	r2, #79	; 0x4f
 80a0c8a:	d9fa      	bls.n	80a0c82 <_ZN17Adafruit_NeoPixel4showEv+0x812>
          pinSet(pin, LOW);
 80a0c8c:	79e2      	ldrb	r2, [r4, #7]
 80a0c8e:	ebc2 02c2 	rsb	r2, r2, r2, lsl #3
 80a0c92:	eb00 0682 	add.w	r6, r0, r2, lsl #2
 80a0c96:	88b6      	ldrh	r6, [r6, #4]
 80a0c98:	f850 2022 	ldr.w	r2, [r0, r2, lsl #2]
 80a0c9c:	8356      	strh	r6, [r2, #26]
          cyc = DWT->CYCCNT;
 80a0c9e:	685a      	ldr	r2, [r3, #4]
 80a0ca0:	9205      	str	r2, [sp, #20]
          while(DWT->CYCCNT - cyc < CYCLES_800_T1L);
 80a0ca2:	685a      	ldr	r2, [r3, #4]
 80a0ca4:	9e05      	ldr	r6, [sp, #20]
 80a0ca6:	1b92      	subs	r2, r2, r6
 80a0ca8:	2a07      	cmp	r2, #7
 80a0caa:	d9fa      	bls.n	80a0ca2 <_ZN17Adafruit_NeoPixel4showEv+0x832>
        mask >>= 1;
 80a0cac:	9a04      	ldr	r2, [sp, #16]
 80a0cae:	0852      	lsrs	r2, r2, #1
 80a0cb0:	9204      	str	r2, [sp, #16]
      } while ( ++j < 24 ); // ... pixel done
 80a0cb2:	f89d 2005 	ldrb.w	r2, [sp, #5]
 80a0cb6:	3201      	adds	r2, #1
 80a0cb8:	b2d2      	uxtb	r2, r2
 80a0cba:	2a17      	cmp	r2, #23
 80a0cbc:	f88d 2005 	strb.w	r2, [sp, #5]
 80a0cc0:	d9d0      	bls.n	80a0c64 <_ZN17Adafruit_NeoPixel4showEv+0x7f4>
    while(i) { // While bytes left... (3 bytes = 1 pixel)
 80a0cc2:	f8bd 200a 	ldrh.w	r2, [sp, #10]
 80a0cc6:	b292      	uxth	r2, r2
 80a0cc8:	2a00      	cmp	r2, #0
 80a0cca:	d1a7      	bne.n	80a0c1c <_ZN17Adafruit_NeoPixel4showEv+0x7ac>
 80a0ccc:	e797      	b.n	80a0bfe <_ZN17Adafruit_NeoPixel4showEv+0x78e>
          while(DWT->CYCCNT - cyc < CYCLES_800_T0H);
 80a0cce:	685a      	ldr	r2, [r3, #4]
 80a0cd0:	9e05      	ldr	r6, [sp, #20]
 80a0cd2:	1b92      	subs	r2, r2, r6
 80a0cd4:	2a18      	cmp	r2, #24
 80a0cd6:	d9fa      	bls.n	80a0cce <_ZN17Adafruit_NeoPixel4showEv+0x85e>
          pinSet(pin, LOW);
 80a0cd8:	79e2      	ldrb	r2, [r4, #7]
 80a0cda:	ebc2 02c2 	rsb	r2, r2, r2, lsl #3
 80a0cde:	eb00 0682 	add.w	r6, r0, r2, lsl #2
 80a0ce2:	88b6      	ldrh	r6, [r6, #4]
 80a0ce4:	f850 2022 	ldr.w	r2, [r0, r2, lsl #2]
 80a0ce8:	8356      	strh	r6, [r2, #26]
          cyc = DWT->CYCCNT;
 80a0cea:	685a      	ldr	r2, [r3, #4]
 80a0cec:	9205      	str	r2, [sp, #20]
          while(DWT->CYCCNT - cyc < CYCLES_800_T0L);
 80a0cee:	685a      	ldr	r2, [r3, #4]
 80a0cf0:	9e05      	ldr	r6, [sp, #20]
 80a0cf2:	1b92      	subs	r2, r2, r6
 80a0cf4:	2a45      	cmp	r2, #69	; 0x45
 80a0cf6:	d9fa      	bls.n	80a0cee <_ZN17Adafruit_NeoPixel4showEv+0x87e>
 80a0cf8:	e7d8      	b.n	80a0cac <_ZN17Adafruit_NeoPixel4showEv+0x83c>
 80a0cfa:	4770      	bx	lr
    while(i) { // While bytes left... (4 bytes = 1 pixel)
 80a0cfc:	2b00      	cmp	r3, #0
 80a0cfe:	f43f af7e 	beq.w	80a0bfe <_ZN17Adafruit_NeoPixel4showEv+0x78e>
      mask = 0x80000000; // reset the mask
 80a0d02:	f04f 4500 	mov.w	r5, #2147483648	; 0x80000000
      j = 0;        // reset the 32-bit counter
 80a0d06:	2600      	movs	r6, #0
 80a0d08:	4a17      	ldr	r2, [pc, #92]	; (80a0d68 <_ZN17Adafruit_NeoPixel4showEv+0x8f8>)
      mask = 0x80000000; // reset the mask
 80a0d0a:	9504      	str	r5, [sp, #16]
      i = i-4;      // decrement bytes remaining
 80a0d0c:	f8bd 300a 	ldrh.w	r3, [sp, #10]
      w = *ptr++;   // Next white byte value
 80a0d10:	3104      	adds	r1, #4
      i = i-4;      // decrement bytes remaining
 80a0d12:	3b04      	subs	r3, #4
 80a0d14:	b29b      	uxth	r3, r3
 80a0d16:	f8ad 300a 	strh.w	r3, [sp, #10]
      r = *ptr++;   // Next red byte value
 80a0d1a:	f811 3c04 	ldrb.w	r3, [r1, #-4]
 80a0d1e:	b2db      	uxtb	r3, r3
 80a0d20:	f88d 3007 	strb.w	r3, [sp, #7]
      g = *ptr++;   // Next green byte value
 80a0d24:	f811 3c03 	ldrb.w	r3, [r1, #-3]
 80a0d28:	b2db      	uxtb	r3, r3
 80a0d2a:	f88d 3006 	strb.w	r3, [sp, #6]
      b = *ptr++;   // Next blue byte value
 80a0d2e:	f811 3c02 	ldrb.w	r3, [r1, #-2]
 80a0d32:	b2db      	uxtb	r3, r3
 80a0d34:	f88d 3008 	strb.w	r3, [sp, #8]
      w = *ptr++;   // Next white byte value
 80a0d38:	f811 3c01 	ldrb.w	r3, [r1, #-1]
 80a0d3c:	b2db      	uxtb	r3, r3
 80a0d3e:	f88d 3009 	strb.w	r3, [sp, #9]
      c = ((uint32_t)r << 24) | ((uint32_t)g << 16) | ((uint32_t)b <<  8) | w; // Pack the next 4 bytes to keep timing tight
 80a0d42:	f89d 0007 	ldrb.w	r0, [sp, #7]
 80a0d46:	f89d 3006 	ldrb.w	r3, [sp, #6]
 80a0d4a:	041b      	lsls	r3, r3, #16
 80a0d4c:	ea43 6300 	orr.w	r3, r3, r0, lsl #24
 80a0d50:	f89d 0008 	ldrb.w	r0, [sp, #8]
 80a0d54:	f89d 7009 	ldrb.w	r7, [sp, #9]
 80a0d58:	433b      	orrs	r3, r7
 80a0d5a:	ea43 2300 	orr.w	r3, r3, r0, lsl #8
 80a0d5e:	9303      	str	r3, [sp, #12]
      j = 0;        // reset the 32-bit counter
 80a0d60:	f88d 6005 	strb.w	r6, [sp, #5]
 80a0d64:	e07f      	b.n	80a0e66 <_ZN17Adafruit_NeoPixel4showEv+0x9f6>
 80a0d66:	bf00      	nop
 80a0d68:	200000b0 	.word	0x200000b0
 80a0d6c:	e0001000 	.word	0xe0001000
          asm volatile(
 80a0d70:	4600      	mov	r0, r0
 80a0d72:	bf00      	nop
 80a0d74:	bf00      	nop
 80a0d76:	bf00      	nop
 80a0d78:	bf00      	nop
 80a0d7a:	bf00      	nop
 80a0d7c:	bf00      	nop
 80a0d7e:	bf00      	nop
 80a0d80:	bf00      	nop
 80a0d82:	bf00      	nop
 80a0d84:	bf00      	nop
 80a0d86:	bf00      	nop
 80a0d88:	bf00      	nop
 80a0d8a:	bf00      	nop
 80a0d8c:	bf00      	nop
 80a0d8e:	bf00      	nop
 80a0d90:	bf00      	nop
 80a0d92:	bf00      	nop
 80a0d94:	bf00      	nop
 80a0d96:	bf00      	nop
 80a0d98:	bf00      	nop
 80a0d9a:	bf00      	nop
 80a0d9c:	bf00      	nop
 80a0d9e:	bf00      	nop
 80a0da0:	bf00      	nop
 80a0da2:	bf00      	nop
 80a0da4:	bf00      	nop
 80a0da6:	bf00      	nop
 80a0da8:	bf00      	nop
 80a0daa:	bf00      	nop
 80a0dac:	bf00      	nop
 80a0dae:	bf00      	nop
 80a0db0:	bf00      	nop
 80a0db2:	bf00      	nop
 80a0db4:	bf00      	nop
 80a0db6:	bf00      	nop
 80a0db8:	bf00      	nop
 80a0dba:	bf00      	nop
 80a0dbc:	bf00      	nop
 80a0dbe:	bf00      	nop
 80a0dc0:	bf00      	nop
 80a0dc2:	bf00      	nop
 80a0dc4:	bf00      	nop
 80a0dc6:	bf00      	nop
 80a0dc8:	bf00      	nop
 80a0dca:	bf00      	nop
 80a0dcc:	bf00      	nop
 80a0dce:	bf00      	nop
 80a0dd0:	bf00      	nop
 80a0dd2:	bf00      	nop
 80a0dd4:	bf00      	nop
 80a0dd6:	bf00      	nop
 80a0dd8:	bf00      	nop
 80a0dda:	bf00      	nop
 80a0ddc:	bf00      	nop
          pinSet(pin, LOW); // LOW
 80a0dde:	79e3      	ldrb	r3, [r4, #7]
 80a0de0:	6810      	ldr	r0, [r2, #0]
 80a0de2:	ebc3 03c3 	rsb	r3, r3, r3, lsl #3
 80a0de6:	eb00 0783 	add.w	r7, r0, r3, lsl #2
 80a0dea:	f850 3023 	ldr.w	r3, [r0, r3, lsl #2]
 80a0dee:	88b8      	ldrh	r0, [r7, #4]
 80a0df0:	8358      	strh	r0, [r3, #26]
          asm volatile(
 80a0df2:	4600      	mov	r0, r0
 80a0df4:	bf00      	nop
 80a0df6:	bf00      	nop
 80a0df8:	bf00      	nop
 80a0dfa:	bf00      	nop
 80a0dfc:	bf00      	nop
 80a0dfe:	bf00      	nop
 80a0e00:	bf00      	nop
 80a0e02:	bf00      	nop
 80a0e04:	bf00      	nop
 80a0e06:	bf00      	nop
 80a0e08:	bf00      	nop
 80a0e0a:	bf00      	nop
 80a0e0c:	bf00      	nop
 80a0e0e:	bf00      	nop
 80a0e10:	bf00      	nop
 80a0e12:	bf00      	nop
 80a0e14:	bf00      	nop
 80a0e16:	bf00      	nop
 80a0e18:	bf00      	nop
 80a0e1a:	bf00      	nop
 80a0e1c:	bf00      	nop
 80a0e1e:	bf00      	nop
 80a0e20:	bf00      	nop
 80a0e22:	bf00      	nop
 80a0e24:	bf00      	nop
 80a0e26:	bf00      	nop
 80a0e28:	bf00      	nop
 80a0e2a:	bf00      	nop
 80a0e2c:	bf00      	nop
 80a0e2e:	bf00      	nop
 80a0e30:	bf00      	nop
 80a0e32:	bf00      	nop
 80a0e34:	bf00      	nop
 80a0e36:	bf00      	nop
 80a0e38:	bf00      	nop
 80a0e3a:	bf00      	nop
 80a0e3c:	bf00      	nop
 80a0e3e:	bf00      	nop
 80a0e40:	bf00      	nop
 80a0e42:	bf00      	nop
 80a0e44:	bf00      	nop
 80a0e46:	bf00      	nop
 80a0e48:	bf00      	nop
 80a0e4a:	bf00      	nop
 80a0e4c:	bf00      	nop
 80a0e4e:	bf00      	nop
        mask >>= 1;
 80a0e50:	9b04      	ldr	r3, [sp, #16]
 80a0e52:	085b      	lsrs	r3, r3, #1
 80a0e54:	9304      	str	r3, [sp, #16]
      } while ( ++j < 32 ); // ... pixel done
 80a0e56:	f89d 3005 	ldrb.w	r3, [sp, #5]
 80a0e5a:	3301      	adds	r3, #1
 80a0e5c:	b2db      	uxtb	r3, r3
 80a0e5e:	2b1f      	cmp	r3, #31
 80a0e60:	f88d 3005 	strb.w	r3, [sp, #5]
 80a0e64:	d87e      	bhi.n	80a0f64 <_ZN17Adafruit_NeoPixel4showEv+0xaf4>
        pinSet(pin, HIGH); // HIGH
 80a0e66:	79e3      	ldrb	r3, [r4, #7]
 80a0e68:	6810      	ldr	r0, [r2, #0]
 80a0e6a:	ebc3 03c3 	rsb	r3, r3, r3, lsl #3
 80a0e6e:	eb00 0783 	add.w	r7, r0, r3, lsl #2
 80a0e72:	f850 3023 	ldr.w	r3, [r0, r3, lsl #2]
 80a0e76:	88b8      	ldrh	r0, [r7, #4]
 80a0e78:	8318      	strh	r0, [r3, #24]
        if (c & mask) { // if masked bit is high
 80a0e7a:	9803      	ldr	r0, [sp, #12]
 80a0e7c:	9b04      	ldr	r3, [sp, #16]
 80a0e7e:	4218      	tst	r0, r3
 80a0e80:	f47f af76 	bne.w	80a0d70 <_ZN17Adafruit_NeoPixel4showEv+0x900>
          asm volatile(
 80a0e84:	4600      	mov	r0, r0
 80a0e86:	bf00      	nop
 80a0e88:	bf00      	nop
 80a0e8a:	bf00      	nop
 80a0e8c:	bf00      	nop
 80a0e8e:	bf00      	nop
 80a0e90:	bf00      	nop
 80a0e92:	bf00      	nop
 80a0e94:	bf00      	nop
 80a0e96:	bf00      	nop
 80a0e98:	bf00      	nop
 80a0e9a:	bf00      	nop
 80a0e9c:	bf00      	nop
 80a0e9e:	bf00      	nop
 80a0ea0:	bf00      	nop
 80a0ea2:	bf00      	nop
 80a0ea4:	bf00      	nop
 80a0ea6:	bf00      	nop
 80a0ea8:	bf00      	nop
 80a0eaa:	bf00      	nop
          pinSet(pin, LOW); // LOW
 80a0eac:	79e3      	ldrb	r3, [r4, #7]
 80a0eae:	6810      	ldr	r0, [r2, #0]
 80a0eb0:	ebc3 03c3 	rsb	r3, r3, r3, lsl #3
 80a0eb4:	eb00 0783 	add.w	r7, r0, r3, lsl #2
 80a0eb8:	f850 3023 	ldr.w	r3, [r0, r3, lsl #2]
 80a0ebc:	88b8      	ldrh	r0, [r7, #4]
 80a0ebe:	8358      	strh	r0, [r3, #26]
          asm volatile(
 80a0ec0:	4600      	mov	r0, r0
 80a0ec2:	bf00      	nop
 80a0ec4:	bf00      	nop
 80a0ec6:	bf00      	nop
 80a0ec8:	bf00      	nop
 80a0eca:	bf00      	nop
 80a0ecc:	bf00      	nop
 80a0ece:	bf00      	nop
 80a0ed0:	bf00      	nop
 80a0ed2:	bf00      	nop
 80a0ed4:	bf00      	nop
 80a0ed6:	bf00      	nop
 80a0ed8:	bf00      	nop
 80a0eda:	bf00      	nop
 80a0edc:	bf00      	nop
 80a0ede:	bf00      	nop
 80a0ee0:	bf00      	nop
 80a0ee2:	bf00      	nop
 80a0ee4:	bf00      	nop
 80a0ee6:	bf00      	nop
 80a0ee8:	bf00      	nop
 80a0eea:	bf00      	nop
 80a0eec:	bf00      	nop
 80a0eee:	bf00      	nop
 80a0ef0:	bf00      	nop
 80a0ef2:	bf00      	nop
 80a0ef4:	bf00      	nop
 80a0ef6:	bf00      	nop
 80a0ef8:	bf00      	nop
 80a0efa:	bf00      	nop
 80a0efc:	bf00      	nop
 80a0efe:	bf00      	nop
 80a0f00:	bf00      	nop
 80a0f02:	bf00      	nop
 80a0f04:	bf00      	nop
 80a0f06:	bf00      	nop
 80a0f08:	bf00      	nop
 80a0f0a:	bf00      	nop
 80a0f0c:	bf00      	nop
 80a0f0e:	bf00      	nop
 80a0f10:	bf00      	nop
 80a0f12:	bf00      	nop
 80a0f14:	bf00      	nop
 80a0f16:	bf00      	nop
 80a0f18:	bf00      	nop
 80a0f1a:	bf00      	nop
 80a0f1c:	bf00      	nop
 80a0f1e:	bf00      	nop
 80a0f20:	bf00      	nop
 80a0f22:	bf00      	nop
 80a0f24:	bf00      	nop
 80a0f26:	bf00      	nop
 80a0f28:	bf00      	nop
 80a0f2a:	bf00      	nop
 80a0f2c:	bf00      	nop
 80a0f2e:	bf00      	nop
 80a0f30:	bf00      	nop
 80a0f32:	bf00      	nop
 80a0f34:	bf00      	nop
 80a0f36:	bf00      	nop
 80a0f38:	bf00      	nop
 80a0f3a:	bf00      	nop
 80a0f3c:	bf00      	nop
 80a0f3e:	bf00      	nop
 80a0f40:	bf00      	nop
 80a0f42:	bf00      	nop
 80a0f44:	bf00      	nop
 80a0f46:	bf00      	nop
 80a0f48:	bf00      	nop
 80a0f4a:	bf00      	nop
 80a0f4c:	bf00      	nop
 80a0f4e:	bf00      	nop
 80a0f50:	bf00      	nop
 80a0f52:	bf00      	nop
 80a0f54:	bf00      	nop
 80a0f56:	bf00      	nop
 80a0f58:	bf00      	nop
 80a0f5a:	bf00      	nop
 80a0f5c:	bf00      	nop
 80a0f5e:	bf00      	nop
 80a0f60:	bf00      	nop
 80a0f62:	e775      	b.n	80a0e50 <_ZN17Adafruit_NeoPixel4showEv+0x9e0>
    while(i) { // While bytes left... (4 bytes = 1 pixel)
 80a0f64:	f8bd 300a 	ldrh.w	r3, [sp, #10]
 80a0f68:	b29b      	uxth	r3, r3
 80a0f6a:	2b00      	cmp	r3, #0
 80a0f6c:	f47f aecd 	bne.w	80a0d0a <_ZN17Adafruit_NeoPixel4showEv+0x89a>
 80a0f70:	e645      	b.n	80a0bfe <_ZN17Adafruit_NeoPixel4showEv+0x78e>
  else if(type == TM1803) { // TM1803 (Radio Shack Tri-Color Strip), 400 KHz bitstream
 80a0f72:	2d03      	cmp	r5, #3
 80a0f74:	f000 8128 	beq.w	80a11c8 <_ZN17Adafruit_NeoPixel4showEv+0xd58>
    while(i) { // While bytes left... (3 bytes = 1 pixel)
 80a0f78:	2b00      	cmp	r3, #0
 80a0f7a:	f43f ae40 	beq.w	80a0bfe <_ZN17Adafruit_NeoPixel4showEv+0x78e>
      mask = 0x800000; // reset the mask
 80a0f7e:	f44f 0500 	mov.w	r5, #8388608	; 0x800000
      j = 0;        // reset the 24-bit counter
 80a0f82:	2600      	movs	r6, #0
 80a0f84:	4a16      	ldr	r2, [pc, #88]	; (80a0fe0 <_ZN17Adafruit_NeoPixel4showEv+0xb70>)
      mask = 0x800000; // reset the mask
 80a0f86:	9504      	str	r5, [sp, #16]
      i = i-3;      // decrement bytes remaining
 80a0f88:	f8bd 300a 	ldrh.w	r3, [sp, #10]
      pinSet(pin, LOW); // LOW
 80a0f8c:	79e0      	ldrb	r0, [r4, #7]
      i = i-3;      // decrement bytes remaining
 80a0f8e:	3b03      	subs	r3, #3
 80a0f90:	b29b      	uxth	r3, r3
 80a0f92:	f8ad 300a 	strh.w	r3, [sp, #10]
      r = *ptr++;   // Next red byte value
 80a0f96:	780b      	ldrb	r3, [r1, #0]
      pinSet(pin, LOW); // LOW
 80a0f98:	6817      	ldr	r7, [r2, #0]
      r = *ptr++;   // Next red byte value
 80a0f9a:	b2db      	uxtb	r3, r3
 80a0f9c:	f88d 3007 	strb.w	r3, [sp, #7]
      b = *ptr++;   // Next blue byte value
 80a0fa0:	784b      	ldrb	r3, [r1, #1]
      pinSet(pin, LOW); // LOW
 80a0fa2:	ebc0 00c0 	rsb	r0, r0, r0, lsl #3
      b = *ptr++;   // Next blue byte value
 80a0fa6:	b2db      	uxtb	r3, r3
 80a0fa8:	f88d 3008 	strb.w	r3, [sp, #8]
      g = *ptr++;   // Next green byte value
 80a0fac:	788b      	ldrb	r3, [r1, #2]
 80a0fae:	3103      	adds	r1, #3
 80a0fb0:	b2db      	uxtb	r3, r3
 80a0fb2:	f88d 3006 	strb.w	r3, [sp, #6]
      c = ((uint32_t)r << 16) | ((uint32_t)b <<  8) | g; // Pack the next 3 bytes to keep timing tight
 80a0fb6:	f89d c007 	ldrb.w	ip, [sp, #7]
 80a0fba:	f89d 3008 	ldrb.w	r3, [sp, #8]
 80a0fbe:	021b      	lsls	r3, r3, #8
 80a0fc0:	ea43 430c 	orr.w	r3, r3, ip, lsl #16
 80a0fc4:	f89d c006 	ldrb.w	ip, [sp, #6]
 80a0fc8:	ea43 030c 	orr.w	r3, r3, ip
      pinSet(pin, LOW); // LOW
 80a0fcc:	eb07 0c80 	add.w	ip, r7, r0, lsl #2
      c = ((uint32_t)r << 16) | ((uint32_t)b <<  8) | g; // Pack the next 3 bytes to keep timing tight
 80a0fd0:	9303      	str	r3, [sp, #12]
      pinSet(pin, LOW); // LOW
 80a0fd2:	f857 3020 	ldr.w	r3, [r7, r0, lsl #2]
      j = 0;        // reset the 24-bit counter
 80a0fd6:	f88d 6005 	strb.w	r6, [sp, #5]
      pinSet(pin, LOW); // LOW
 80a0fda:	f8bc 0004 	ldrh.w	r0, [ip, #4]
 80a0fde:	e07a      	b.n	80a10d6 <_ZN17Adafruit_NeoPixel4showEv+0xc66>
 80a0fe0:	200000b0 	.word	0x200000b0
          mask >>= 1; // Do this task during the long delay of this bit
 80a0fe4:	9b04      	ldr	r3, [sp, #16]
 80a0fe6:	085b      	lsrs	r3, r3, #1
 80a0fe8:	9304      	str	r3, [sp, #16]
          asm volatile(
 80a0fea:	4600      	mov	r0, r0
 80a0fec:	bf00      	nop
 80a0fee:	bf00      	nop
 80a0ff0:	bf00      	nop
 80a0ff2:	bf00      	nop
 80a0ff4:	bf00      	nop
 80a0ff6:	bf00      	nop
 80a0ff8:	bf00      	nop
 80a0ffa:	bf00      	nop
 80a0ffc:	bf00      	nop
 80a0ffe:	bf00      	nop
 80a1000:	bf00      	nop
 80a1002:	bf00      	nop
 80a1004:	bf00      	nop
 80a1006:	bf00      	nop
 80a1008:	bf00      	nop
 80a100a:	bf00      	nop
 80a100c:	bf00      	nop
 80a100e:	bf00      	nop
 80a1010:	bf00      	nop
 80a1012:	bf00      	nop
 80a1014:	bf00      	nop
 80a1016:	bf00      	nop
 80a1018:	bf00      	nop
 80a101a:	bf00      	nop
 80a101c:	bf00      	nop
 80a101e:	bf00      	nop
 80a1020:	bf00      	nop
 80a1022:	bf00      	nop
 80a1024:	bf00      	nop
 80a1026:	bf00      	nop
 80a1028:	bf00      	nop
 80a102a:	bf00      	nop
 80a102c:	bf00      	nop
 80a102e:	bf00      	nop
 80a1030:	bf00      	nop
 80a1032:	bf00      	nop
 80a1034:	bf00      	nop
 80a1036:	bf00      	nop
 80a1038:	bf00      	nop
 80a103a:	bf00      	nop
 80a103c:	bf00      	nop
 80a103e:	bf00      	nop
 80a1040:	bf00      	nop
 80a1042:	bf00      	nop
 80a1044:	bf00      	nop
 80a1046:	bf00      	nop
 80a1048:	bf00      	nop
 80a104a:	bf00      	nop
 80a104c:	bf00      	nop
 80a104e:	bf00      	nop
 80a1050:	bf00      	nop
 80a1052:	bf00      	nop
 80a1054:	bf00      	nop
 80a1056:	bf00      	nop
 80a1058:	bf00      	nop
 80a105a:	bf00      	nop
 80a105c:	bf00      	nop
 80a105e:	bf00      	nop
 80a1060:	bf00      	nop
 80a1062:	bf00      	nop
 80a1064:	bf00      	nop
 80a1066:	bf00      	nop
 80a1068:	bf00      	nop
 80a106a:	bf00      	nop
 80a106c:	bf00      	nop
 80a106e:	bf00      	nop
          pinSet(pin, HIGH); // HIGH
 80a1070:	79e0      	ldrb	r0, [r4, #7]
 80a1072:	6817      	ldr	r7, [r2, #0]
          j++;
 80a1074:	f89d 3005 	ldrb.w	r3, [sp, #5]
          pinSet(pin, HIGH); // HIGH
 80a1078:	ebc0 00c0 	rsb	r0, r0, r0, lsl #3
 80a107c:	eb07 0c80 	add.w	ip, r7, r0, lsl #2
          j++;
 80a1080:	3301      	adds	r3, #1
          pinSet(pin, HIGH); // HIGH
 80a1082:	f857 0020 	ldr.w	r0, [r7, r0, lsl #2]
 80a1086:	f8bc 7004 	ldrh.w	r7, [ip, #4]
          j++;
 80a108a:	b2db      	uxtb	r3, r3
 80a108c:	f88d 3005 	strb.w	r3, [sp, #5]
          pinSet(pin, HIGH); // HIGH
 80a1090:	8307      	strh	r7, [r0, #24]
          asm volatile(
 80a1092:	4600      	mov	r0, r0
 80a1094:	bf00      	nop
 80a1096:	bf00      	nop
 80a1098:	bf00      	nop
 80a109a:	bf00      	nop
 80a109c:	bf00      	nop
 80a109e:	bf00      	nop
 80a10a0:	bf00      	nop
 80a10a2:	bf00      	nop
 80a10a4:	bf00      	nop
 80a10a6:	bf00      	nop
 80a10a8:	bf00      	nop
 80a10aa:	bf00      	nop
 80a10ac:	bf00      	nop
 80a10ae:	bf00      	nop
 80a10b0:	bf00      	nop
 80a10b2:	bf00      	nop
 80a10b4:	bf00      	nop
 80a10b6:	bf00      	nop
 80a10b8:	bf00      	nop
 80a10ba:	bf00      	nop
          if(j==24) break;
 80a10bc:	f89d 3005 	ldrb.w	r3, [sp, #5]
 80a10c0:	2b18      	cmp	r3, #24
 80a10c2:	d07a      	beq.n	80a11ba <_ZN17Adafruit_NeoPixel4showEv+0xd4a>
          pinSet(pin, LOW); // LOW
 80a10c4:	79e3      	ldrb	r3, [r4, #7]
 80a10c6:	6810      	ldr	r0, [r2, #0]
 80a10c8:	ebc3 03c3 	rsb	r3, r3, r3, lsl #3
 80a10cc:	eb00 0783 	add.w	r7, r0, r3, lsl #2
 80a10d0:	f850 3023 	ldr.w	r3, [r0, r3, lsl #2]
 80a10d4:	88b8      	ldrh	r0, [r7, #4]
      pinSet(pin, LOW); // LOW
 80a10d6:	8358      	strh	r0, [r3, #26]
        if (c & mask) { // if masked bit is high
 80a10d8:	9803      	ldr	r0, [sp, #12]
 80a10da:	9b04      	ldr	r3, [sp, #16]
 80a10dc:	4218      	tst	r0, r3
 80a10de:	d181      	bne.n	80a0fe4 <_ZN17Adafruit_NeoPixel4showEv+0xb74>
          asm volatile(
 80a10e0:	4600      	mov	r0, r0
 80a10e2:	bf00      	nop
 80a10e4:	bf00      	nop
 80a10e6:	bf00      	nop
 80a10e8:	bf00      	nop
 80a10ea:	bf00      	nop
 80a10ec:	bf00      	nop
 80a10ee:	bf00      	nop
 80a10f0:	bf00      	nop
 80a10f2:	bf00      	nop
 80a10f4:	bf00      	nop
 80a10f6:	bf00      	nop
 80a10f8:	bf00      	nop
 80a10fa:	bf00      	nop
 80a10fc:	bf00      	nop
 80a10fe:	bf00      	nop
 80a1100:	bf00      	nop
          pinSet(pin, HIGH); // HIGH
 80a1102:	79e3      	ldrb	r3, [r4, #7]
 80a1104:	6810      	ldr	r0, [r2, #0]
 80a1106:	ebc3 03c3 	rsb	r3, r3, r3, lsl #3
 80a110a:	eb00 0783 	add.w	r7, r0, r3, lsl #2
 80a110e:	f850 3023 	ldr.w	r3, [r0, r3, lsl #2]
 80a1112:	88b8      	ldrh	r0, [r7, #4]
 80a1114:	8318      	strh	r0, [r3, #24]
          j++;
 80a1116:	f89d 3005 	ldrb.w	r3, [sp, #5]
 80a111a:	3301      	adds	r3, #1
 80a111c:	b2db      	uxtb	r3, r3
 80a111e:	f88d 3005 	strb.w	r3, [sp, #5]
          mask >>= 1; // Do this task during the long delay of this bit
 80a1122:	9b04      	ldr	r3, [sp, #16]
 80a1124:	085b      	lsrs	r3, r3, #1
 80a1126:	9304      	str	r3, [sp, #16]
          asm volatile(
 80a1128:	4600      	mov	r0, r0
 80a112a:	bf00      	nop
 80a112c:	bf00      	nop
 80a112e:	bf00      	nop
 80a1130:	bf00      	nop
 80a1132:	bf00      	nop
 80a1134:	bf00      	nop
 80a1136:	bf00      	nop
 80a1138:	bf00      	nop
 80a113a:	bf00      	nop
 80a113c:	bf00      	nop
 80a113e:	bf00      	nop
 80a1140:	bf00      	nop
 80a1142:	bf00      	nop
 80a1144:	bf00      	nop
 80a1146:	bf00      	nop
 80a1148:	bf00      	nop
 80a114a:	bf00      	nop
 80a114c:	bf00      	nop
 80a114e:	bf00      	nop
 80a1150:	bf00      	nop
 80a1152:	bf00      	nop
 80a1154:	bf00      	nop
 80a1156:	bf00      	nop
 80a1158:	bf00      	nop
 80a115a:	bf00      	nop
 80a115c:	bf00      	nop
 80a115e:	bf00      	nop
 80a1160:	bf00      	nop
 80a1162:	bf00      	nop
 80a1164:	bf00      	nop
 80a1166:	bf00      	nop
 80a1168:	bf00      	nop
 80a116a:	bf00      	nop
 80a116c:	bf00      	nop
 80a116e:	bf00      	nop
 80a1170:	bf00      	nop
 80a1172:	bf00      	nop
 80a1174:	bf00      	nop
 80a1176:	bf00      	nop
 80a1178:	bf00      	nop
 80a117a:	bf00      	nop
 80a117c:	bf00      	nop
 80a117e:	bf00      	nop
 80a1180:	bf00      	nop
 80a1182:	bf00      	nop
 80a1184:	bf00      	nop
 80a1186:	bf00      	nop
 80a1188:	bf00      	nop
 80a118a:	bf00      	nop
 80a118c:	bf00      	nop
 80a118e:	bf00      	nop
 80a1190:	bf00      	nop
 80a1192:	bf00      	nop
 80a1194:	bf00      	nop
 80a1196:	bf00      	nop
 80a1198:	bf00      	nop
 80a119a:	bf00      	nop
 80a119c:	bf00      	nop
 80a119e:	bf00      	nop
 80a11a0:	bf00      	nop
 80a11a2:	bf00      	nop
 80a11a4:	bf00      	nop
 80a11a6:	bf00      	nop
 80a11a8:	bf00      	nop
 80a11aa:	bf00      	nop
 80a11ac:	bf00      	nop
 80a11ae:	bf00      	nop
 80a11b0:	bf00      	nop
          if(j==24) break;
 80a11b2:	f89d 3005 	ldrb.w	r3, [sp, #5]
 80a11b6:	2b18      	cmp	r3, #24
 80a11b8:	d184      	bne.n	80a10c4 <_ZN17Adafruit_NeoPixel4showEv+0xc54>
    while(i) { // While bytes left... (3 bytes = 1 pixel)
 80a11ba:	f8bd 300a 	ldrh.w	r3, [sp, #10]
 80a11be:	b29b      	uxth	r3, r3
 80a11c0:	2b00      	cmp	r3, #0
 80a11c2:	f47f aee0 	bne.w	80a0f86 <_ZN17Adafruit_NeoPixel4showEv+0xb16>
 80a11c6:	e51a      	b.n	80a0bfe <_ZN17Adafruit_NeoPixel4showEv+0x78e>
    while(i) { // While bytes left... (3 bytes = 1 pixel)
 80a11c8:	2b00      	cmp	r3, #0
 80a11ca:	f43f ad18 	beq.w	80a0bfe <_ZN17Adafruit_NeoPixel4showEv+0x78e>
      mask = 0x800000; // reset the mask
 80a11ce:	f44f 0500 	mov.w	r5, #8388608	; 0x800000
      j = 0;        // reset the 24-bit counter
 80a11d2:	2600      	movs	r6, #0
 80a11d4:	4a12      	ldr	r2, [pc, #72]	; (80a1220 <_ZN17Adafruit_NeoPixel4showEv+0xdb0>)
      mask = 0x800000; // reset the mask
 80a11d6:	9504      	str	r5, [sp, #16]
      i = i-3;      // decrement bytes remaining
 80a11d8:	f8bd 300a 	ldrh.w	r3, [sp, #10]
      b = *ptr++;   // Next green byte value
 80a11dc:	3103      	adds	r1, #3
      i = i-3;      // decrement bytes remaining
 80a11de:	3b03      	subs	r3, #3
 80a11e0:	b29b      	uxth	r3, r3
 80a11e2:	f8ad 300a 	strh.w	r3, [sp, #10]
      r = *ptr++;   // Next red byte value
 80a11e6:	f811 3c03 	ldrb.w	r3, [r1, #-3]
 80a11ea:	b2db      	uxtb	r3, r3
 80a11ec:	f88d 3007 	strb.w	r3, [sp, #7]
      g = *ptr++;   // Next blue byte value
 80a11f0:	f811 3c02 	ldrb.w	r3, [r1, #-2]
 80a11f4:	b2db      	uxtb	r3, r3
 80a11f6:	f88d 3006 	strb.w	r3, [sp, #6]
      b = *ptr++;   // Next green byte value
 80a11fa:	f811 3c01 	ldrb.w	r3, [r1, #-1]
 80a11fe:	b2db      	uxtb	r3, r3
 80a1200:	f88d 3008 	strb.w	r3, [sp, #8]
      c = ((uint32_t)r << 16) | ((uint32_t)g <<  8) | b; // Pack the next 3 bytes to keep timing tight
 80a1204:	f89d 0007 	ldrb.w	r0, [sp, #7]
 80a1208:	f89d 3006 	ldrb.w	r3, [sp, #6]
 80a120c:	021b      	lsls	r3, r3, #8
 80a120e:	ea43 4300 	orr.w	r3, r3, r0, lsl #16
 80a1212:	f89d 0008 	ldrb.w	r0, [sp, #8]
 80a1216:	4303      	orrs	r3, r0
 80a1218:	9303      	str	r3, [sp, #12]
      j = 0;        // reset the 24-bit counter
 80a121a:	f88d 6005 	strb.w	r6, [sp, #5]
 80a121e:	e0e0      	b.n	80a13e2 <_ZN17Adafruit_NeoPixel4showEv+0xf72>
 80a1220:	200000b0 	.word	0x200000b0
          asm volatile(
 80a1224:	4600      	mov	r0, r0
 80a1226:	bf00      	nop
 80a1228:	bf00      	nop
 80a122a:	bf00      	nop
 80a122c:	bf00      	nop
 80a122e:	bf00      	nop
 80a1230:	bf00      	nop
 80a1232:	bf00      	nop
 80a1234:	bf00      	nop
 80a1236:	bf00      	nop
 80a1238:	bf00      	nop
 80a123a:	bf00      	nop
 80a123c:	bf00      	nop
 80a123e:	bf00      	nop
 80a1240:	bf00      	nop
 80a1242:	bf00      	nop
 80a1244:	bf00      	nop
 80a1246:	bf00      	nop
 80a1248:	bf00      	nop
 80a124a:	bf00      	nop
 80a124c:	bf00      	nop
 80a124e:	bf00      	nop
 80a1250:	bf00      	nop
 80a1252:	bf00      	nop
 80a1254:	bf00      	nop
 80a1256:	bf00      	nop
 80a1258:	bf00      	nop
 80a125a:	bf00      	nop
 80a125c:	bf00      	nop
 80a125e:	bf00      	nop
 80a1260:	bf00      	nop
 80a1262:	bf00      	nop
 80a1264:	bf00      	nop
 80a1266:	bf00      	nop
 80a1268:	bf00      	nop
 80a126a:	bf00      	nop
 80a126c:	bf00      	nop
 80a126e:	bf00      	nop
 80a1270:	bf00      	nop
 80a1272:	bf00      	nop
 80a1274:	bf00      	nop
 80a1276:	bf00      	nop
 80a1278:	bf00      	nop
 80a127a:	bf00      	nop
 80a127c:	bf00      	nop
 80a127e:	bf00      	nop
 80a1280:	bf00      	nop
 80a1282:	bf00      	nop
 80a1284:	bf00      	nop
 80a1286:	bf00      	nop
 80a1288:	bf00      	nop
 80a128a:	bf00      	nop
 80a128c:	bf00      	nop
 80a128e:	bf00      	nop
 80a1290:	bf00      	nop
 80a1292:	bf00      	nop
 80a1294:	bf00      	nop
 80a1296:	bf00      	nop
 80a1298:	bf00      	nop
 80a129a:	bf00      	nop
 80a129c:	bf00      	nop
 80a129e:	bf00      	nop
 80a12a0:	bf00      	nop
 80a12a2:	bf00      	nop
 80a12a4:	bf00      	nop
 80a12a6:	bf00      	nop
 80a12a8:	bf00      	nop
 80a12aa:	bf00      	nop
 80a12ac:	bf00      	nop
 80a12ae:	bf00      	nop
 80a12b0:	bf00      	nop
 80a12b2:	bf00      	nop
 80a12b4:	bf00      	nop
 80a12b6:	bf00      	nop
 80a12b8:	bf00      	nop
 80a12ba:	bf00      	nop
 80a12bc:	bf00      	nop
 80a12be:	bf00      	nop
 80a12c0:	bf00      	nop
 80a12c2:	bf00      	nop
 80a12c4:	bf00      	nop
 80a12c6:	bf00      	nop
 80a12c8:	bf00      	nop
 80a12ca:	bf00      	nop
 80a12cc:	bf00      	nop
 80a12ce:	bf00      	nop
 80a12d0:	bf00      	nop
 80a12d2:	bf00      	nop
 80a12d4:	bf00      	nop
 80a12d6:	bf00      	nop
 80a12d8:	bf00      	nop
 80a12da:	bf00      	nop
 80a12dc:	bf00      	nop
 80a12de:	bf00      	nop
 80a12e0:	bf00      	nop
 80a12e2:	bf00      	nop
 80a12e4:	bf00      	nop
 80a12e6:	bf00      	nop
 80a12e8:	bf00      	nop
 80a12ea:	bf00      	nop
 80a12ec:	bf00      	nop
 80a12ee:	bf00      	nop
 80a12f0:	bf00      	nop
 80a12f2:	bf00      	nop
 80a12f4:	bf00      	nop
 80a12f6:	bf00      	nop
 80a12f8:	bf00      	nop
 80a12fa:	bf00      	nop
 80a12fc:	bf00      	nop
 80a12fe:	bf00      	nop
 80a1300:	bf00      	nop
 80a1302:	bf00      	nop
 80a1304:	bf00      	nop
 80a1306:	bf00      	nop
 80a1308:	bf00      	nop
 80a130a:	bf00      	nop
 80a130c:	bf00      	nop
 80a130e:	bf00      	nop
 80a1310:	bf00      	nop
 80a1312:	bf00      	nop
 80a1314:	bf00      	nop
 80a1316:	bf00      	nop
 80a1318:	bf00      	nop
 80a131a:	bf00      	nop
 80a131c:	bf00      	nop
 80a131e:	bf00      	nop
 80a1320:	bf00      	nop
 80a1322:	bf00      	nop
 80a1324:	bf00      	nop
 80a1326:	bf00      	nop
 80a1328:	bf00      	nop
 80a132a:	bf00      	nop
 80a132c:	bf00      	nop
 80a132e:	bf00      	nop
 80a1330:	bf00      	nop
 80a1332:	bf00      	nop
 80a1334:	bf00      	nop
 80a1336:	bf00      	nop
 80a1338:	bf00      	nop
 80a133a:	bf00      	nop
 80a133c:	bf00      	nop
 80a133e:	bf00      	nop
 80a1340:	bf00      	nop
 80a1342:	bf00      	nop
 80a1344:	bf00      	nop
          pinSet(pin, LOW); // LOW
 80a1346:	79e3      	ldrb	r3, [r4, #7]
 80a1348:	6810      	ldr	r0, [r2, #0]
 80a134a:	ebc3 03c3 	rsb	r3, r3, r3, lsl #3
 80a134e:	eb00 0783 	add.w	r7, r0, r3, lsl #2
 80a1352:	f850 3023 	ldr.w	r3, [r0, r3, lsl #2]
 80a1356:	88b8      	ldrh	r0, [r7, #4]
 80a1358:	8358      	strh	r0, [r3, #26]
          asm volatile(
 80a135a:	4600      	mov	r0, r0
 80a135c:	bf00      	nop
 80a135e:	bf00      	nop
 80a1360:	bf00      	nop
 80a1362:	bf00      	nop
 80a1364:	bf00      	nop
 80a1366:	bf00      	nop
 80a1368:	bf00      	nop
 80a136a:	bf00      	nop
 80a136c:	bf00      	nop
 80a136e:	bf00      	nop
 80a1370:	bf00      	nop
 80a1372:	bf00      	nop
 80a1374:	bf00      	nop
 80a1376:	bf00      	nop
 80a1378:	bf00      	nop
 80a137a:	bf00      	nop
 80a137c:	bf00      	nop
 80a137e:	bf00      	nop
 80a1380:	bf00      	nop
 80a1382:	bf00      	nop
 80a1384:	bf00      	nop
 80a1386:	bf00      	nop
 80a1388:	bf00      	nop
 80a138a:	bf00      	nop
 80a138c:	bf00      	nop
 80a138e:	bf00      	nop
 80a1390:	bf00      	nop
 80a1392:	bf00      	nop
 80a1394:	bf00      	nop
 80a1396:	bf00      	nop
 80a1398:	bf00      	nop
 80a139a:	bf00      	nop
 80a139c:	bf00      	nop
 80a139e:	bf00      	nop
 80a13a0:	bf00      	nop
 80a13a2:	bf00      	nop
 80a13a4:	bf00      	nop
 80a13a6:	bf00      	nop
 80a13a8:	bf00      	nop
 80a13aa:	bf00      	nop
 80a13ac:	bf00      	nop
 80a13ae:	bf00      	nop
 80a13b0:	bf00      	nop
 80a13b2:	bf00      	nop
 80a13b4:	bf00      	nop
 80a13b6:	bf00      	nop
 80a13b8:	bf00      	nop
 80a13ba:	bf00      	nop
 80a13bc:	bf00      	nop
 80a13be:	bf00      	nop
 80a13c0:	bf00      	nop
 80a13c2:	bf00      	nop
 80a13c4:	bf00      	nop
 80a13c6:	bf00      	nop
 80a13c8:	bf00      	nop
        mask >>= 1;
 80a13ca:	9b04      	ldr	r3, [sp, #16]
 80a13cc:	085b      	lsrs	r3, r3, #1
 80a13ce:	9304      	str	r3, [sp, #16]
      } while ( ++j < 24 ); // ... pixel done
 80a13d0:	f89d 3005 	ldrb.w	r3, [sp, #5]
 80a13d4:	3301      	adds	r3, #1
 80a13d6:	b2db      	uxtb	r3, r3
 80a13d8:	2b17      	cmp	r3, #23
 80a13da:	f88d 3005 	strb.w	r3, [sp, #5]
 80a13de:	f200 80eb 	bhi.w	80a15b8 <_ZN17Adafruit_NeoPixel4showEv+0x1148>
        pinSet(pin, HIGH); // HIGH
 80a13e2:	79e3      	ldrb	r3, [r4, #7]
 80a13e4:	6810      	ldr	r0, [r2, #0]
 80a13e6:	ebc3 03c3 	rsb	r3, r3, r3, lsl #3
 80a13ea:	eb00 0783 	add.w	r7, r0, r3, lsl #2
 80a13ee:	f850 3023 	ldr.w	r3, [r0, r3, lsl #2]
 80a13f2:	88b8      	ldrh	r0, [r7, #4]
 80a13f4:	8318      	strh	r0, [r3, #24]
        if (c & mask) { // if masked bit is high
 80a13f6:	9803      	ldr	r0, [sp, #12]
 80a13f8:	9b04      	ldr	r3, [sp, #16]
 80a13fa:	4218      	tst	r0, r3
 80a13fc:	f47f af12 	bne.w	80a1224 <_ZN17Adafruit_NeoPixel4showEv+0xdb4>
          asm volatile(
 80a1400:	4600      	mov	r0, r0
 80a1402:	bf00      	nop
 80a1404:	bf00      	nop
 80a1406:	bf00      	nop
 80a1408:	bf00      	nop
 80a140a:	bf00      	nop
 80a140c:	bf00      	nop
 80a140e:	bf00      	nop
 80a1410:	bf00      	nop
 80a1412:	bf00      	nop
 80a1414:	bf00      	nop
 80a1416:	bf00      	nop
 80a1418:	bf00      	nop
 80a141a:	bf00      	nop
 80a141c:	bf00      	nop
 80a141e:	bf00      	nop
 80a1420:	bf00      	nop
 80a1422:	bf00      	nop
 80a1424:	bf00      	nop
 80a1426:	bf00      	nop
 80a1428:	bf00      	nop
 80a142a:	bf00      	nop
 80a142c:	bf00      	nop
 80a142e:	bf00      	nop
 80a1430:	bf00      	nop
 80a1432:	bf00      	nop
 80a1434:	bf00      	nop
 80a1436:	bf00      	nop
 80a1438:	bf00      	nop
 80a143a:	bf00      	nop
 80a143c:	bf00      	nop
 80a143e:	bf00      	nop
 80a1440:	bf00      	nop
 80a1442:	bf00      	nop
 80a1444:	bf00      	nop
 80a1446:	bf00      	nop
 80a1448:	bf00      	nop
 80a144a:	bf00      	nop
 80a144c:	bf00      	nop
 80a144e:	bf00      	nop
 80a1450:	bf00      	nop
 80a1452:	bf00      	nop
 80a1454:	bf00      	nop
 80a1456:	bf00      	nop
 80a1458:	bf00      	nop
 80a145a:	bf00      	nop
 80a145c:	bf00      	nop
 80a145e:	bf00      	nop
 80a1460:	bf00      	nop
 80a1462:	bf00      	nop
 80a1464:	bf00      	nop
 80a1466:	bf00      	nop
 80a1468:	bf00      	nop
 80a146a:	bf00      	nop
 80a146c:	bf00      	nop
 80a146e:	bf00      	nop
 80a1470:	bf00      	nop
 80a1472:	bf00      	nop
 80a1474:	bf00      	nop
 80a1476:	bf00      	nop
 80a1478:	bf00      	nop
 80a147a:	bf00      	nop
 80a147c:	bf00      	nop
 80a147e:	bf00      	nop
 80a1480:	bf00      	nop
          pinSet(pin, LOW); // LOW
 80a1482:	79e3      	ldrb	r3, [r4, #7]
 80a1484:	6810      	ldr	r0, [r2, #0]
 80a1486:	ebc3 03c3 	rsb	r3, r3, r3, lsl #3
 80a148a:	eb00 0783 	add.w	r7, r0, r3, lsl #2
 80a148e:	f850 3023 	ldr.w	r3, [r0, r3, lsl #2]
 80a1492:	88b8      	ldrh	r0, [r7, #4]
 80a1494:	8358      	strh	r0, [r3, #26]
          asm volatile(
 80a1496:	4600      	mov	r0, r0
 80a1498:	bf00      	nop
 80a149a:	bf00      	nop
 80a149c:	bf00      	nop
 80a149e:	bf00      	nop
 80a14a0:	bf00      	nop
 80a14a2:	bf00      	nop
 80a14a4:	bf00      	nop
 80a14a6:	bf00      	nop
 80a14a8:	bf00      	nop
 80a14aa:	bf00      	nop
 80a14ac:	bf00      	nop
 80a14ae:	bf00      	nop
 80a14b0:	bf00      	nop
 80a14b2:	bf00      	nop
 80a14b4:	bf00      	nop
 80a14b6:	bf00      	nop
 80a14b8:	bf00      	nop
 80a14ba:	bf00      	nop
 80a14bc:	bf00      	nop
 80a14be:	bf00      	nop
 80a14c0:	bf00      	nop
 80a14c2:	bf00      	nop
 80a14c4:	bf00      	nop
 80a14c6:	bf00      	nop
 80a14c8:	bf00      	nop
 80a14ca:	bf00      	nop
 80a14cc:	bf00      	nop
 80a14ce:	bf00      	nop
 80a14d0:	bf00      	nop
 80a14d2:	bf00      	nop
 80a14d4:	bf00      	nop
 80a14d6:	bf00      	nop
 80a14d8:	bf00      	nop
 80a14da:	bf00      	nop
 80a14dc:	bf00      	nop
 80a14de:	bf00      	nop
 80a14e0:	bf00      	nop
 80a14e2:	bf00      	nop
 80a14e4:	bf00      	nop
 80a14e6:	bf00      	nop
 80a14e8:	bf00      	nop
 80a14ea:	bf00      	nop
 80a14ec:	bf00      	nop
 80a14ee:	bf00      	nop
 80a14f0:	bf00      	nop
 80a14f2:	bf00      	nop
 80a14f4:	bf00      	nop
 80a14f6:	bf00      	nop
 80a14f8:	bf00      	nop
 80a14fa:	bf00      	nop
 80a14fc:	bf00      	nop
 80a14fe:	bf00      	nop
 80a1500:	bf00      	nop
 80a1502:	bf00      	nop
 80a1504:	bf00      	nop
 80a1506:	bf00      	nop
 80a1508:	bf00      	nop
 80a150a:	bf00      	nop
 80a150c:	bf00      	nop
 80a150e:	bf00      	nop
 80a1510:	bf00      	nop
 80a1512:	bf00      	nop
 80a1514:	bf00      	nop
 80a1516:	bf00      	nop
 80a1518:	bf00      	nop
 80a151a:	bf00      	nop
 80a151c:	bf00      	nop
 80a151e:	bf00      	nop
 80a1520:	bf00      	nop
 80a1522:	bf00      	nop
 80a1524:	bf00      	nop
 80a1526:	bf00      	nop
 80a1528:	bf00      	nop
 80a152a:	bf00      	nop
 80a152c:	bf00      	nop
 80a152e:	bf00      	nop
 80a1530:	bf00      	nop
 80a1532:	bf00      	nop
 80a1534:	bf00      	nop
 80a1536:	bf00      	nop
 80a1538:	bf00      	nop
 80a153a:	bf00      	nop
 80a153c:	bf00      	nop
 80a153e:	bf00      	nop
 80a1540:	bf00      	nop
 80a1542:	bf00      	nop
 80a1544:	bf00      	nop
 80a1546:	bf00      	nop
 80a1548:	bf00      	nop
 80a154a:	bf00      	nop
 80a154c:	bf00      	nop
 80a154e:	bf00      	nop
 80a1550:	bf00      	nop
 80a1552:	bf00      	nop
 80a1554:	bf00      	nop
 80a1556:	bf00      	nop
 80a1558:	bf00      	nop
 80a155a:	bf00      	nop
 80a155c:	bf00      	nop
 80a155e:	bf00      	nop
 80a1560:	bf00      	nop
 80a1562:	bf00      	nop
 80a1564:	bf00      	nop
 80a1566:	bf00      	nop
 80a1568:	bf00      	nop
 80a156a:	bf00      	nop
 80a156c:	bf00      	nop
 80a156e:	bf00      	nop
 80a1570:	bf00      	nop
 80a1572:	bf00      	nop
 80a1574:	bf00      	nop
 80a1576:	bf00      	nop
 80a1578:	bf00      	nop
 80a157a:	bf00      	nop
 80a157c:	bf00      	nop
 80a157e:	bf00      	nop
 80a1580:	bf00      	nop
 80a1582:	bf00      	nop
 80a1584:	bf00      	nop
 80a1586:	bf00      	nop
 80a1588:	bf00      	nop
 80a158a:	bf00      	nop
 80a158c:	bf00      	nop
 80a158e:	bf00      	nop
 80a1590:	bf00      	nop
 80a1592:	bf00      	nop
 80a1594:	bf00      	nop
 80a1596:	bf00      	nop
 80a1598:	bf00      	nop
 80a159a:	bf00      	nop
 80a159c:	bf00      	nop
 80a159e:	bf00      	nop
 80a15a0:	bf00      	nop
 80a15a2:	bf00      	nop
 80a15a4:	bf00      	nop
 80a15a6:	e710      	b.n	80a13ca <_ZN17Adafruit_NeoPixel4showEv+0xf5a>
    while(i) { // While bytes left... (3 bytes = 1 pixel)
 80a15a8:	f8bd 300a 	ldrh.w	r3, [sp, #10]
 80a15ac:	b29b      	uxth	r3, r3
 80a15ae:	2b00      	cmp	r3, #0
 80a15b0:	f47e af96 	bne.w	80a04e0 <_ZN17Adafruit_NeoPixel4showEv+0x70>
 80a15b4:	f7ff bb23 	b.w	80a0bfe <_ZN17Adafruit_NeoPixel4showEv+0x78e>
    while(i) { // While bytes left... (3 bytes = 1 pixel)
 80a15b8:	f8bd 300a 	ldrh.w	r3, [sp, #10]
 80a15bc:	b29b      	uxth	r3, r3
 80a15be:	2b00      	cmp	r3, #0
 80a15c0:	f47f ae09 	bne.w	80a11d6 <_ZN17Adafruit_NeoPixel4showEv+0xd66>
 80a15c4:	f7ff bb1b 	b.w	80a0bfe <_ZN17Adafruit_NeoPixel4showEv+0x78e>

080a15c8 <_ZN17Adafruit_NeoPixel13setPixelColorEtm>:
}

// Set pixel color from 'packed' 32-bit RGB color:
// If RGB+W color, order of bytes is WRGB in packed 32-bit form
void Adafruit_NeoPixel::setPixelColor(uint16_t n, uint32_t c) {
  if(n < numLEDs) {
 80a15c8:	8843      	ldrh	r3, [r0, #2]
void Adafruit_NeoPixel::setPixelColor(uint16_t n, uint32_t c) {
 80a15ca:	b5f0      	push	{r4, r5, r6, r7, lr}
  if(n < numLEDs) {
 80a15cc:	428b      	cmp	r3, r1
 80a15ce:	d92d      	bls.n	80a162c <_ZN17Adafruit_NeoPixel13setPixelColorEtm+0x64>
    uint8_t
      r = (uint8_t)(c >> 16),
      g = (uint8_t)(c >>  8),
      b = (uint8_t)c;
    if(brightness) { // See notes in setBrightness()
 80a15d0:	7a06      	ldrb	r6, [r0, #8]
 80a15d2:	f3c2 4307 	ubfx	r3, r2, #16, #8
 80a15d6:	f3c2 2407 	ubfx	r4, r2, #8, #8
 80a15da:	b2d5      	uxtb	r5, r2
 80a15dc:	b13e      	cbz	r6, 80a15ee <_ZN17Adafruit_NeoPixel13setPixelColorEtm+0x26>
      r = (r * brightness) >> 8;
 80a15de:	4373      	muls	r3, r6
      g = (g * brightness) >> 8;
 80a15e0:	4374      	muls	r4, r6
      b = (b * brightness) >> 8;
 80a15e2:	4375      	muls	r5, r6
      r = (r * brightness) >> 8;
 80a15e4:	f3c3 2307 	ubfx	r3, r3, #8, #8
      g = (g * brightness) >> 8;
 80a15e8:	f3c4 2407 	ubfx	r4, r4, #8, #8
      b = (b * brightness) >> 8;
 80a15ec:	0a2d      	lsrs	r5, r5, #8
    }
    uint8_t *p = &pixels[n * (type==SK6812RGBW?4:3)];
 80a15ee:	f890 c006 	ldrb.w	ip, [r0, #6]
 80a15f2:	68c7      	ldr	r7, [r0, #12]
 80a15f4:	f1bc 0f06 	cmp.w	ip, #6
 80a15f8:	bf0c      	ite	eq
 80a15fa:	2604      	moveq	r6, #4
 80a15fc:	2603      	movne	r6, #3
 80a15fe:	434e      	muls	r6, r1
 80a1600:	f1ac 0c02 	sub.w	ip, ip, #2
 80a1604:	19b9      	adds	r1, r7, r6
    switch(type) {
 80a1606:	f1bc 0f06 	cmp.w	ip, #6
 80a160a:	d81d      	bhi.n	80a1648 <_ZN17Adafruit_NeoPixel13setPixelColorEtm+0x80>
 80a160c:	e8df f00c 	tbb	[pc, ip]
 80a1610:	04081c04 	.word	0x04081c04
 80a1614:	040f      	.short	0x040f
 80a1616:	04          	.byte	0x04
 80a1617:	00          	.byte	0x00
      case WS2812B: // WS2812, WS2812B & WS2813 is GRB order.
      case WS2812B_FAST:
      case WS2812B2:
      case WS2812B2_FAST: {
          *p++ = g;
 80a1618:	55bc      	strb	r4, [r7, r6]
          *p++ = r;
 80a161a:	704b      	strb	r3, [r1, #1]
      case WS2811: // WS2811 is RGB order
      case TM1803: // TM1803 is RGB order
      default: {   // default is RGB order
          *p++ = r;
          *p++ = g;
          *p = b;
 80a161c:	708d      	strb	r5, [r1, #2]
        } break;
    }
  }
}
 80a161e:	e005      	b.n	80a162c <_ZN17Adafruit_NeoPixel13setPixelColorEtm+0x64>
          *p++ = r;
 80a1620:	2bfe      	cmp	r3, #254	; 0xfe
 80a1622:	bf28      	it	cs
 80a1624:	23fe      	movcs	r3, #254	; 0xfe
 80a1626:	55bb      	strb	r3, [r7, r6]
          *p++ = b;
 80a1628:	704d      	strb	r5, [r1, #1]
          *p = g;
 80a162a:	708c      	strb	r4, [r1, #2]
}
 80a162c:	bdf0      	pop	{r4, r5, r6, r7, pc}
          *p++ = r;
 80a162e:	55bb      	strb	r3, [r7, r6]
          *p++ = g;
 80a1630:	704c      	strb	r4, [r1, #1]
          *p++ = b;
 80a1632:	708d      	strb	r5, [r1, #2]
          *p = brightness ? ((w * brightness) >> 8) : w;
 80a1634:	7a03      	ldrb	r3, [r0, #8]
          uint8_t w = (uint8_t)(c >> 24);
 80a1636:	0e12      	lsrs	r2, r2, #24
          *p = brightness ? ((w * brightness) >> 8) : w;
 80a1638:	b913      	cbnz	r3, 80a1640 <_ZN17Adafruit_NeoPixel13setPixelColorEtm+0x78>
          uint8_t w = (uint8_t)(c >> 24);
 80a163a:	b2d2      	uxtb	r2, r2
          *p = brightness ? ((w * brightness) >> 8) : w;
 80a163c:	70ca      	strb	r2, [r1, #3]
        } break;
 80a163e:	e7f5      	b.n	80a162c <_ZN17Adafruit_NeoPixel13setPixelColorEtm+0x64>
          *p = brightness ? ((w * brightness) >> 8) : w;
 80a1640:	435a      	muls	r2, r3
 80a1642:	f3c2 2207 	ubfx	r2, r2, #8, #8
 80a1646:	e7f9      	b.n	80a163c <_ZN17Adafruit_NeoPixel13setPixelColorEtm+0x74>
          *p++ = r;
 80a1648:	55bb      	strb	r3, [r7, r6]
          *p++ = g;
 80a164a:	704c      	strb	r4, [r1, #1]
 80a164c:	e7e6      	b.n	80a161c <_ZN17Adafruit_NeoPixel13setPixelColorEtm+0x54>

080a164e <_ZN17Adafruit_NeoPixel5ColorEhhh>:
}

// Convert separate R,G,B into packed 32-bit RGB color.
// Packed format is always RGB, regardless of LED strand color order.
uint32_t Adafruit_NeoPixel::Color(uint8_t r, uint8_t g, uint8_t b) {
  return ((uint32_t)r << 16) | ((uint32_t)g <<  8) | b;
 80a164e:	ea42 2201 	orr.w	r2, r2, r1, lsl #8
}
 80a1652:	ea42 4000 	orr.w	r0, r2, r0, lsl #16
 80a1656:	4770      	bx	lr

080a1658 <_GLOBAL__sub_I_PIN_MAP2>:
  return brightness - 1;
}

void Adafruit_NeoPixel::clear(void) {
  memset(pixels, 0, numBytes);
}
 80a1658:	b508      	push	{r3, lr}
  STM32_Pin_Info* PIN_MAP2 = HAL_Pin_Map(); // Pointer required for highest access speed
 80a165a:	f000 f8f9 	bl	80a1850 <HAL_Pin_Map>
 80a165e:	4b01      	ldr	r3, [pc, #4]	; (80a1664 <_GLOBAL__sub_I_PIN_MAP2+0xc>)
 80a1660:	6018      	str	r0, [r3, #0]
}
 80a1662:	bd08      	pop	{r3, pc}
 80a1664:	200000b0 	.word	0x200000b0

080a1668 <_ZN7rgb_lcdD1Ev>:
#define LCD_2LINE 0x08
#define LCD_1LINE 0x00
#define LCD_5x10DOTS 0x04
#define LCD_5x8DOTS 0x00

class rgb_lcd : public Print 
 80a1668:	4770      	bx	lr

080a166a <_ZN7rgb_lcdD0Ev>:
 80a166a:	b510      	push	{r4, lr}
 80a166c:	4604      	mov	r4, r0
 80a166e:	2110      	movs	r1, #16
 80a1670:	f7fe fd15 	bl	80a009e <_ZdlPvj>
 80a1674:	4620      	mov	r0, r4
 80a1676:	bd10      	pop	{r4, pc}

080a1678 <_Z14i2c_send_byteSPhh>:
    Wire.write(dta);                            // sends five bytes
    Wire.endTransmission();                     // stop transmitting
}

void i2c_send_byteS(unsigned char *dta, unsigned char len)
{
 80a1678:	b570      	push	{r4, r5, r6, lr}
 80a167a:	460e      	mov	r6, r1
 80a167c:	4605      	mov	r5, r0
    Wire.beginTransmission(LCD_ADDRESS);        // transmit to device #4
 80a167e:	f001 f89f 	bl	80a27c0 <_Z19__fetch_global_Wirev>
 80a1682:	213e      	movs	r1, #62	; 0x3e
 80a1684:	f000 fec0 	bl	80a2408 <_ZN7TwoWire17beginTransmissionEi>
    for(int i=0; i<len; i++)
 80a1688:	2400      	movs	r4, #0
 80a168a:	42a6      	cmp	r6, r4
 80a168c:	dd07      	ble.n	80a169e <_Z14i2c_send_byteSPhh+0x26>
    {
        Wire.write(dta[i]);
 80a168e:	f001 f897 	bl	80a27c0 <_Z19__fetch_global_Wirev>
 80a1692:	6803      	ldr	r3, [r0, #0]
 80a1694:	5d29      	ldrb	r1, [r5, r4]
 80a1696:	689b      	ldr	r3, [r3, #8]
 80a1698:	4798      	blx	r3
    for(int i=0; i<len; i++)
 80a169a:	3401      	adds	r4, #1
 80a169c:	e7f5      	b.n	80a168a <_Z14i2c_send_byteSPhh+0x12>
    }
    Wire.endTransmission();                     // stop transmitting
 80a169e:	f001 f88f 	bl	80a27c0 <_Z19__fetch_global_Wirev>
}
 80a16a2:	e8bd 4070 	ldmia.w	sp!, {r4, r5, r6, lr}
    Wire.endTransmission();                     // stop transmitting
 80a16a6:	f000 beb6 	b.w	80a2416 <_ZN7TwoWire15endTransmissionEv>

080a16aa <_ZN7rgb_lcd5writeEh>:

// send data
inline size_t rgb_lcd::write(uint8_t value)
{

    unsigned char dta[2] = {0x40, value};
 80a16aa:	2340      	movs	r3, #64	; 0x40
{
 80a16ac:	b507      	push	{r0, r1, r2, lr}
    unsigned char dta[2] = {0x40, value};
 80a16ae:	f88d 1005 	strb.w	r1, [sp, #5]
    i2c_send_byteS(dta, 2);
 80a16b2:	a801      	add	r0, sp, #4
 80a16b4:	2102      	movs	r1, #2
    unsigned char dta[2] = {0x40, value};
 80a16b6:	f88d 3004 	strb.w	r3, [sp, #4]
    i2c_send_byteS(dta, 2);
 80a16ba:	f7ff ffdd 	bl	80a1678 <_Z14i2c_send_byteSPhh>
    return 1; // assume sucess
}
 80a16be:	2001      	movs	r0, #1
 80a16c0:	b003      	add	sp, #12
 80a16c2:	f85d fb04 	ldr.w	pc, [sp], #4

080a16c6 <_ZN7rgb_lcd7commandEh.constprop.0>:
    unsigned char dta[2] = {0x80, value};
 80a16c6:	2380      	movs	r3, #128	; 0x80
inline void rgb_lcd::command(uint8_t value)
 80a16c8:	b507      	push	{r0, r1, r2, lr}
    i2c_send_byteS(dta, 2);
 80a16ca:	2102      	movs	r1, #2
    unsigned char dta[2] = {0x80, value};
 80a16cc:	f88d 0005 	strb.w	r0, [sp, #5]
    i2c_send_byteS(dta, 2);
 80a16d0:	a801      	add	r0, sp, #4
    unsigned char dta[2] = {0x80, value};
 80a16d2:	f88d 3004 	strb.w	r3, [sp, #4]
    i2c_send_byteS(dta, 2);
 80a16d6:	f7ff ffcf 	bl	80a1678 <_Z14i2c_send_byteSPhh>
}
 80a16da:	b003      	add	sp, #12
 80a16dc:	f85d fb04 	ldr.w	pc, [sp], #4

080a16e0 <_ZN7rgb_lcdC1Ev>:
    Print() : write_error(0) {}
 80a16e0:	2200      	movs	r2, #0
 80a16e2:	6042      	str	r2, [r0, #4]
rgb_lcd::rgb_lcd()
 80a16e4:	4a01      	ldr	r2, [pc, #4]	; (80a16ec <_ZN7rgb_lcdC1Ev+0xc>)
 80a16e6:	6002      	str	r2, [r0, #0]
}
 80a16e8:	4770      	bx	lr
 80a16ea:	bf00      	nop
 80a16ec:	080a361c 	.word	0x080a361c

080a16f0 <_ZN7rgb_lcd5clearEv>:
{
 80a16f0:	b508      	push	{r3, lr}
    command(LCD_CLEARDISPLAY);        // clear display, set cursor position to zero
 80a16f2:	2001      	movs	r0, #1
 80a16f4:	f7ff ffe7 	bl	80a16c6 <_ZN7rgb_lcd7commandEh.constprop.0>
}
 80a16f8:	e8bd 4008 	ldmia.w	sp!, {r3, lr}
void delay(unsigned long ms);
inline void delayMicroseconds(unsigned int us) { HAL_Delay_Microseconds(us); }
 80a16fc:	f44f 60fa 	mov.w	r0, #2000	; 0x7d0
 80a1700:	f000 b8e6 	b.w	80a18d0 <HAL_Delay_Microseconds>

080a1704 <_ZN7rgb_lcd9setCursorEhh>:
{
 80a1704:	b507      	push	{r0, r1, r2, lr}
    col = (row == 0 ? col|0x80 : col|0xc0);
 80a1706:	b96a      	cbnz	r2, 80a1724 <_ZN7rgb_lcd9setCursorEhh+0x20>
 80a1708:	f041 0180 	orr.w	r1, r1, #128	; 0x80
    unsigned char dta[2] = {0x80, col};
 80a170c:	2380      	movs	r3, #128	; 0x80
 80a170e:	f88d 1005 	strb.w	r1, [sp, #5]
    i2c_send_byteS(dta, 2);
 80a1712:	a801      	add	r0, sp, #4
 80a1714:	2102      	movs	r1, #2
    unsigned char dta[2] = {0x80, col};
 80a1716:	f88d 3004 	strb.w	r3, [sp, #4]
    i2c_send_byteS(dta, 2);
 80a171a:	f7ff ffad 	bl	80a1678 <_Z14i2c_send_byteSPhh>
}
 80a171e:	b003      	add	sp, #12
 80a1720:	f85d fb04 	ldr.w	pc, [sp], #4
    col = (row == 0 ? col|0x80 : col|0xc0);
 80a1724:	f041 01c0 	orr.w	r1, r1, #192	; 0xc0
 80a1728:	e7f0      	b.n	80a170c <_ZN7rgb_lcd9setCursorEhh+0x8>

080a172a <_ZN7rgb_lcd7displayEv>:
    _displaycontrol |= LCD_DISPLAYON;
 80a172a:	7a43      	ldrb	r3, [r0, #9]
 80a172c:	f043 0204 	orr.w	r2, r3, #4
 80a1730:	7242      	strb	r2, [r0, #9]
    command(LCD_DISPLAYCONTROL | _displaycontrol);
 80a1732:	f043 000c 	orr.w	r0, r3, #12
 80a1736:	f7ff bfc6 	b.w	80a16c6 <_ZN7rgb_lcd7commandEh.constprop.0>

080a173a <_ZN7rgb_lcd6setRegEhh>:

void rgb_lcd::setReg(unsigned char addr, unsigned char dta)
{
 80a173a:	b538      	push	{r3, r4, r5, lr}
 80a173c:	4614      	mov	r4, r2
 80a173e:	460d      	mov	r5, r1
    Wire.beginTransmission(RGB_ADDRESS); // transmit to device #4
 80a1740:	f001 f83e 	bl	80a27c0 <_Z19__fetch_global_Wirev>
 80a1744:	2162      	movs	r1, #98	; 0x62
 80a1746:	f000 fe5f 	bl	80a2408 <_ZN7TwoWire17beginTransmissionEi>
    Wire.write(addr);
 80a174a:	f001 f839 	bl	80a27c0 <_Z19__fetch_global_Wirev>
 80a174e:	6803      	ldr	r3, [r0, #0]
 80a1750:	4629      	mov	r1, r5
 80a1752:	689b      	ldr	r3, [r3, #8]
 80a1754:	4798      	blx	r3
    Wire.write(dta);
 80a1756:	f001 f833 	bl	80a27c0 <_Z19__fetch_global_Wirev>
 80a175a:	6803      	ldr	r3, [r0, #0]
 80a175c:	4621      	mov	r1, r4
 80a175e:	689b      	ldr	r3, [r3, #8]
 80a1760:	4798      	blx	r3
    Wire.endTransmission();    // stop transmitting
 80a1762:	f001 f82d 	bl	80a27c0 <_Z19__fetch_global_Wirev>
}
 80a1766:	e8bd 4038 	ldmia.w	sp!, {r3, r4, r5, lr}
    Wire.endTransmission();    // stop transmitting
 80a176a:	f000 be54 	b.w	80a2416 <_ZN7TwoWire15endTransmissionEv>

080a176e <_ZN7rgb_lcd6setRGBEhhh>:

void rgb_lcd::setRGB(unsigned char r, unsigned char g, unsigned char b)
{
 80a176e:	b570      	push	{r4, r5, r6, lr}
 80a1770:	4604      	mov	r4, r0
 80a1772:	4616      	mov	r6, r2
 80a1774:	461d      	mov	r5, r3
    setReg(REG_RED, r);
 80a1776:	460a      	mov	r2, r1
 80a1778:	2104      	movs	r1, #4
 80a177a:	f7ff ffde 	bl	80a173a <_ZN7rgb_lcd6setRegEhh>
    setReg(REG_GREEN, g);
 80a177e:	4632      	mov	r2, r6
 80a1780:	4620      	mov	r0, r4
 80a1782:	2103      	movs	r1, #3
 80a1784:	f7ff ffd9 	bl	80a173a <_ZN7rgb_lcd6setRegEhh>
    setReg(REG_BLUE, b);
 80a1788:	462a      	mov	r2, r5
 80a178a:	4620      	mov	r0, r4
}
 80a178c:	e8bd 4070 	ldmia.w	sp!, {r4, r5, r6, lr}
    setReg(REG_BLUE, b);
 80a1790:	2102      	movs	r1, #2
 80a1792:	f7ff bfd2 	b.w	80a173a <_ZN7rgb_lcd6setRegEhh>

080a1796 <_ZN7rgb_lcd5beginEhhh>:
{
 80a1796:	b570      	push	{r4, r5, r6, lr}
 80a1798:	4615      	mov	r5, r2
 80a179a:	4604      	mov	r4, r0
 80a179c:	461e      	mov	r6, r3
    Wire.begin();
 80a179e:	f001 f80f 	bl	80a27c0 <_Z19__fetch_global_Wirev>
 80a17a2:	f000 fe27 	bl	80a23f4 <_ZN7TwoWire5beginEv>
    if (lines > 1) {
 80a17a6:	2d01      	cmp	r5, #1
        _displayfunction |= LCD_2LINE;
 80a17a8:	bf88      	it	hi
 80a17aa:	7a23      	ldrbhi	r3, [r4, #8]
    _numlines = lines;
 80a17ac:	7325      	strb	r5, [r4, #12]
        _displayfunction |= LCD_2LINE;
 80a17ae:	bf84      	itt	hi
 80a17b0:	f043 0308 	orrhi.w	r3, r3, #8
 80a17b4:	7223      	strbhi	r3, [r4, #8]
    _currline = 0;
 80a17b6:	2300      	movs	r3, #0
 80a17b8:	7363      	strb	r3, [r4, #13]
    if ((dotsize != 0) && (lines == 1)) {
 80a17ba:	b12e      	cbz	r6, 80a17c8 <_ZN7rgb_lcd5beginEhhh+0x32>
 80a17bc:	2d01      	cmp	r5, #1
        _displayfunction |= LCD_5x10DOTS;
 80a17be:	bf02      	ittt	eq
 80a17c0:	7a23      	ldrbeq	r3, [r4, #8]
 80a17c2:	f043 0304 	orreq.w	r3, r3, #4
 80a17c6:	7223      	strbeq	r3, [r4, #8]
 80a17c8:	f24c 3050 	movw	r0, #50000	; 0xc350
 80a17cc:	f000 f880 	bl	80a18d0 <HAL_Delay_Microseconds>
    command(LCD_FUNCTIONSET | _displayfunction);
 80a17d0:	7a20      	ldrb	r0, [r4, #8]
 80a17d2:	f040 0020 	orr.w	r0, r0, #32
 80a17d6:	f7ff ff76 	bl	80a16c6 <_ZN7rgb_lcd7commandEh.constprop.0>
 80a17da:	f241 1094 	movw	r0, #4500	; 0x1194
 80a17de:	f000 f877 	bl	80a18d0 <HAL_Delay_Microseconds>
    command(LCD_FUNCTIONSET | _displayfunction);
 80a17e2:	7a20      	ldrb	r0, [r4, #8]
 80a17e4:	f040 0020 	orr.w	r0, r0, #32
 80a17e8:	f7ff ff6d 	bl	80a16c6 <_ZN7rgb_lcd7commandEh.constprop.0>
 80a17ec:	2096      	movs	r0, #150	; 0x96
 80a17ee:	f000 f86f 	bl	80a18d0 <HAL_Delay_Microseconds>
    command(LCD_FUNCTIONSET | _displayfunction);
 80a17f2:	7a20      	ldrb	r0, [r4, #8]
 80a17f4:	f040 0020 	orr.w	r0, r0, #32
 80a17f8:	f7ff ff65 	bl	80a16c6 <_ZN7rgb_lcd7commandEh.constprop.0>
    command(LCD_FUNCTIONSET | _displayfunction);
 80a17fc:	7a20      	ldrb	r0, [r4, #8]
 80a17fe:	f040 0020 	orr.w	r0, r0, #32
 80a1802:	f7ff ff60 	bl	80a16c6 <_ZN7rgb_lcd7commandEh.constprop.0>
    _displaycontrol = LCD_DISPLAYON | LCD_CURSOROFF | LCD_BLINKOFF;
 80a1806:	2304      	movs	r3, #4
    display();
 80a1808:	4620      	mov	r0, r4
    _displaycontrol = LCD_DISPLAYON | LCD_CURSOROFF | LCD_BLINKOFF;
 80a180a:	7263      	strb	r3, [r4, #9]
    display();
 80a180c:	f7ff ff8d 	bl	80a172a <_ZN7rgb_lcd7displayEv>
    clear();
 80a1810:	4620      	mov	r0, r4
 80a1812:	f7ff ff6d 	bl	80a16f0 <_ZN7rgb_lcd5clearEv>
    _displaymode = LCD_ENTRYLEFT | LCD_ENTRYSHIFTDECREMENT;
 80a1816:	2302      	movs	r3, #2
    command(LCD_ENTRYMODESET | _displaymode);
 80a1818:	2006      	movs	r0, #6
    _displaymode = LCD_ENTRYLEFT | LCD_ENTRYSHIFTDECREMENT;
 80a181a:	72a3      	strb	r3, [r4, #10]
    command(LCD_ENTRYMODESET | _displaymode);
 80a181c:	f7ff ff53 	bl	80a16c6 <_ZN7rgb_lcd7commandEh.constprop.0>
    setReg(0, 0);
 80a1820:	2200      	movs	r2, #0
 80a1822:	4620      	mov	r0, r4
 80a1824:	4611      	mov	r1, r2
 80a1826:	f7ff ff88 	bl	80a173a <_ZN7rgb_lcd6setRegEhh>
    setReg(1, 0);
 80a182a:	4620      	mov	r0, r4
 80a182c:	2200      	movs	r2, #0
 80a182e:	2101      	movs	r1, #1
 80a1830:	f7ff ff83 	bl	80a173a <_ZN7rgb_lcd6setRegEhh>
    setReg(0x08, 0xAA);     // all led control by pwm
 80a1834:	4620      	mov	r0, r4
 80a1836:	22aa      	movs	r2, #170	; 0xaa
 80a1838:	2108      	movs	r1, #8
 80a183a:	f7ff ff7e 	bl	80a173a <_ZN7rgb_lcd6setRegEhh>
  void setRGB(unsigned char r, unsigned char g, unsigned char b);               // set rgb
  void setPWM(unsigned char color, unsigned char pwm){setReg(color, pwm);}      // set pwm
  
  void setColor(unsigned char color);
  void setColorAll(){setRGB(0, 0, 0);}
  void setColorWhite(){setRGB(255, 255, 255);}
 80a183e:	23ff      	movs	r3, #255	; 0xff
 80a1840:	4620      	mov	r0, r4
}
 80a1842:	e8bd 4070 	ldmia.w	sp!, {r4, r5, r6, lr}
 80a1846:	461a      	mov	r2, r3
 80a1848:	4619      	mov	r1, r3
 80a184a:	f7ff bf90 	b.w	80a176e <_ZN7rgb_lcd6setRGBEhhh>
	...

080a1850 <HAL_Pin_Map>:
// New HAL functions must be added to the end of this list.
// GNINRAW

DYNALIB_BEGIN(hal_gpio)

DYNALIB_FN(0, hal_gpio, HAL_Pin_Map, Hal_Pin_Info*(void))
 80a1850:	b508      	push	{r3, lr}
 80a1852:	4b02      	ldr	r3, [pc, #8]	; (80a185c <HAL_Pin_Map+0xc>)
 80a1854:	681b      	ldr	r3, [r3, #0]
 80a1856:	681b      	ldr	r3, [r3, #0]
 80a1858:	9301      	str	r3, [sp, #4]
 80a185a:	bd08      	pop	{r3, pc}
 80a185c:	080601b0 	.word	0x080601b0

080a1860 <HAL_Validate_Pin_Function>:
DYNALIB_FN(1, hal_gpio, HAL_Validate_Pin_Function, PinFunction(pin_t, PinFunction))
 80a1860:	b508      	push	{r3, lr}
 80a1862:	4b02      	ldr	r3, [pc, #8]	; (80a186c <HAL_Validate_Pin_Function+0xc>)
 80a1864:	681b      	ldr	r3, [r3, #0]
 80a1866:	685b      	ldr	r3, [r3, #4]
 80a1868:	9301      	str	r3, [sp, #4]
 80a186a:	bd08      	pop	{r3, pc}
 80a186c:	080601b0 	.word	0x080601b0

080a1870 <HAL_Pin_Mode>:
DYNALIB_FN(2, hal_gpio, HAL_Pin_Mode, void(pin_t, PinMode))
 80a1870:	b508      	push	{r3, lr}
 80a1872:	4b02      	ldr	r3, [pc, #8]	; (80a187c <HAL_Pin_Mode+0xc>)
 80a1874:	681b      	ldr	r3, [r3, #0]
 80a1876:	689b      	ldr	r3, [r3, #8]
 80a1878:	9301      	str	r3, [sp, #4]
 80a187a:	bd08      	pop	{r3, pc}
 80a187c:	080601b0 	.word	0x080601b0

080a1880 <HAL_Get_Pin_Mode>:
DYNALIB_FN(3, hal_gpio, HAL_Get_Pin_Mode, PinMode(pin_t))
 80a1880:	b508      	push	{r3, lr}
 80a1882:	4b02      	ldr	r3, [pc, #8]	; (80a188c <HAL_Get_Pin_Mode+0xc>)
 80a1884:	681b      	ldr	r3, [r3, #0]
 80a1886:	68db      	ldr	r3, [r3, #12]
 80a1888:	9301      	str	r3, [sp, #4]
 80a188a:	bd08      	pop	{r3, pc}
 80a188c:	080601b0 	.word	0x080601b0

080a1890 <HAL_GPIO_Write>:
DYNALIB_FN(4, hal_gpio, HAL_GPIO_Write, void(pin_t, uint8_t))
 80a1890:	b508      	push	{r3, lr}
 80a1892:	4b02      	ldr	r3, [pc, #8]	; (80a189c <HAL_GPIO_Write+0xc>)
 80a1894:	681b      	ldr	r3, [r3, #0]
 80a1896:	691b      	ldr	r3, [r3, #16]
 80a1898:	9301      	str	r3, [sp, #4]
 80a189a:	bd08      	pop	{r3, pc}
 80a189c:	080601b0 	.word	0x080601b0

080a18a0 <HAL_GPIO_Read>:
DYNALIB_FN(5, hal_gpio, HAL_GPIO_Read, int32_t(pin_t))
 80a18a0:	b508      	push	{r3, lr}
 80a18a2:	4b02      	ldr	r3, [pc, #8]	; (80a18ac <HAL_GPIO_Read+0xc>)
 80a18a4:	681b      	ldr	r3, [r3, #0]
 80a18a6:	695b      	ldr	r3, [r3, #20]
 80a18a8:	9301      	str	r3, [sp, #4]
 80a18aa:	bd08      	pop	{r3, pc}
 80a18ac:	080601b0 	.word	0x080601b0

080a18b0 <hal_adc_read>:
DYNALIB_FN(8, hal_gpio, HAL_Interrupts_Enable_All, void(void))
DYNALIB_FN(9, hal_gpio, HAL_Interrupts_Disable_All, void(void))

DYNALIB_FN(10, hal_gpio, HAL_DAC_Write, void(pin_t, uint16_t))
DYNALIB_FN(11, hal_gpio, hal_adc_set_sample_time, void(uint8_t))
DYNALIB_FN(12, hal_gpio, hal_adc_read, int32_t(uint16_t))
 80a18b0:	b508      	push	{r3, lr}
 80a18b2:	4b02      	ldr	r3, [pc, #8]	; (80a18bc <hal_adc_read+0xc>)
 80a18b4:	681b      	ldr	r3, [r3, #0]
 80a18b6:	6b1b      	ldr	r3, [r3, #48]	; 0x30
 80a18b8:	9301      	str	r3, [sp, #4]
 80a18ba:	bd08      	pop	{r3, pc}
 80a18bc:	080601b0 	.word	0x080601b0

080a18c0 <HAL_RNG_GetRandomNumber>:

DYNALIB_BEGIN(hal)

#if PLATFORM_ID > 3
DYNALIB_FN(0, hal, HAL_RNG_Configuration, void(void))
DYNALIB_FN(1, hal, HAL_RNG_GetRandomNumber, uint32_t(void))
 80a18c0:	b508      	push	{r3, lr}
 80a18c2:	4b02      	ldr	r3, [pc, #8]	; (80a18cc <HAL_RNG_GetRandomNumber+0xc>)
 80a18c4:	681b      	ldr	r3, [r3, #0]
 80a18c6:	685b      	ldr	r3, [r3, #4]
 80a18c8:	9301      	str	r3, [sp, #4]
 80a18ca:	bd08      	pop	{r3, pc}
 80a18cc:	0806019c 	.word	0x0806019c

080a18d0 <HAL_Delay_Microseconds>:
#else
#define BASE_IDX 0
#endif

DYNALIB_FN(BASE_IDX + 0, hal, HAL_Delay_Milliseconds, void(uint32_t))
DYNALIB_FN(BASE_IDX + 1, hal, HAL_Delay_Microseconds, void(uint32_t))
 80a18d0:	b508      	push	{r3, lr}
 80a18d2:	4b02      	ldr	r3, [pc, #8]	; (80a18dc <HAL_Delay_Microseconds+0xc>)
 80a18d4:	681b      	ldr	r3, [r3, #0]
 80a18d6:	68db      	ldr	r3, [r3, #12]
 80a18d8:	9301      	str	r3, [sp, #4]
 80a18da:	bd08      	pop	{r3, pc}
 80a18dc:	0806019c 	.word	0x0806019c

080a18e0 <HAL_Timer_Get_Micro_Seconds>:
DYNALIB_FN(BASE_IDX + 2, hal, HAL_Timer_Get_Micro_Seconds, system_tick_t(void))
 80a18e0:	b508      	push	{r3, lr}
 80a18e2:	4b02      	ldr	r3, [pc, #8]	; (80a18ec <HAL_Timer_Get_Micro_Seconds+0xc>)
 80a18e4:	681b      	ldr	r3, [r3, #0]
 80a18e6:	691b      	ldr	r3, [r3, #16]
 80a18e8:	9301      	str	r3, [sp, #4]
 80a18ea:	bd08      	pop	{r3, pc}
 80a18ec:	0806019c 	.word	0x0806019c

080a18f0 <HAL_Timer_Get_Milli_Seconds>:
DYNALIB_FN(BASE_IDX + 3, hal, HAL_Timer_Get_Milli_Seconds, system_tick_t(void))
 80a18f0:	b508      	push	{r3, lr}
 80a18f2:	4b02      	ldr	r3, [pc, #8]	; (80a18fc <HAL_Timer_Get_Milli_Seconds+0xc>)
 80a18f4:	681b      	ldr	r3, [r3, #0]
 80a18f6:	695b      	ldr	r3, [r3, #20]
 80a18f8:	9301      	str	r3, [sp, #4]
 80a18fa:	bd08      	pop	{r3, pc}
 80a18fc:	0806019c 	.word	0x0806019c

080a1900 <os_mutex_recursive_create>:
DYNALIB_FN(13, hal_concurrent, os_mutex_destroy, int(os_mutex_t))
DYNALIB_FN(14, hal_concurrent, os_mutex_lock, int(os_mutex_t))
DYNALIB_FN(15, hal_concurrent, os_mutex_trylock, int(os_mutex_t))
DYNALIB_FN(16, hal_concurrent, os_mutex_unlock, int(os_mutex_t))

DYNALIB_FN(17, hal_concurrent, os_mutex_recursive_create, int(os_mutex_recursive_t*))
 80a1900:	b508      	push	{r3, lr}
 80a1902:	4b02      	ldr	r3, [pc, #8]	; (80a190c <os_mutex_recursive_create+0xc>)
 80a1904:	681b      	ldr	r3, [r3, #0]
 80a1906:	6c5b      	ldr	r3, [r3, #68]	; 0x44
 80a1908:	9301      	str	r3, [sp, #4]
 80a190a:	bd08      	pop	{r3, pc}
 80a190c:	080601d0 	.word	0x080601d0

080a1910 <os_mutex_recursive_destroy>:
DYNALIB_FN(18, hal_concurrent, os_mutex_recursive_destroy, int(os_mutex_recursive_t))
 80a1910:	b508      	push	{r3, lr}
 80a1912:	4b02      	ldr	r3, [pc, #8]	; (80a191c <os_mutex_recursive_destroy+0xc>)
 80a1914:	681b      	ldr	r3, [r3, #0]
 80a1916:	6c9b      	ldr	r3, [r3, #72]	; 0x48
 80a1918:	9301      	str	r3, [sp, #4]
 80a191a:	bd08      	pop	{r3, pc}
 80a191c:	080601d0 	.word	0x080601d0

080a1920 <hal_usart_write>:
#endif

DYNALIB_FN(BASE_IDX + 0, hal_usart, hal_usart_init, void(hal_usart_interface_t, hal_usart_ring_buffer_t*, hal_usart_ring_buffer_t*))
DYNALIB_FN(BASE_IDX + 1, hal_usart, hal_usart_begin, void(hal_usart_interface_t, uint32_t))
DYNALIB_FN(BASE_IDX + 2, hal_usart, hal_usart_end, void(hal_usart_interface_t))
DYNALIB_FN(BASE_IDX + 3, hal_usart, hal_usart_write, uint32_t(hal_usart_interface_t, uint8_t))
 80a1920:	b508      	push	{r3, lr}
 80a1922:	4b02      	ldr	r3, [pc, #8]	; (80a192c <hal_usart_write+0xc>)
 80a1924:	681b      	ldr	r3, [r3, #0]
 80a1926:	6a5b      	ldr	r3, [r3, #36]	; 0x24
 80a1928:	9301      	str	r3, [sp, #4]
 80a192a:	bd08      	pop	{r3, pc}
 80a192c:	080601c4 	.word	0x080601c4

080a1930 <hal_usart_available>:
DYNALIB_FN(BASE_IDX + 4, hal_usart, hal_usart_available, int32_t(hal_usart_interface_t))
 80a1930:	b508      	push	{r3, lr}
 80a1932:	4b02      	ldr	r3, [pc, #8]	; (80a193c <hal_usart_available+0xc>)
 80a1934:	681b      	ldr	r3, [r3, #0]
 80a1936:	6a9b      	ldr	r3, [r3, #40]	; 0x28
 80a1938:	9301      	str	r3, [sp, #4]
 80a193a:	bd08      	pop	{r3, pc}
 80a193c:	080601c4 	.word	0x080601c4

080a1940 <hal_usart_read>:
DYNALIB_FN(BASE_IDX + 5, hal_usart, hal_usart_read, int32_t(hal_usart_interface_t))
 80a1940:	b508      	push	{r3, lr}
 80a1942:	4b02      	ldr	r3, [pc, #8]	; (80a194c <hal_usart_read+0xc>)
 80a1944:	681b      	ldr	r3, [r3, #0]
 80a1946:	6adb      	ldr	r3, [r3, #44]	; 0x2c
 80a1948:	9301      	str	r3, [sp, #4]
 80a194a:	bd08      	pop	{r3, pc}
 80a194c:	080601c4 	.word	0x080601c4

080a1950 <hal_usart_peek>:
DYNALIB_FN(BASE_IDX + 6, hal_usart, hal_usart_peek, int32_t(hal_usart_interface_t))
 80a1950:	b508      	push	{r3, lr}
 80a1952:	4b02      	ldr	r3, [pc, #8]	; (80a195c <hal_usart_peek+0xc>)
 80a1954:	681b      	ldr	r3, [r3, #0]
 80a1956:	6b1b      	ldr	r3, [r3, #48]	; 0x30
 80a1958:	9301      	str	r3, [sp, #4]
 80a195a:	bd08      	pop	{r3, pc}
 80a195c:	080601c4 	.word	0x080601c4

080a1960 <hal_usart_flush>:
DYNALIB_FN(BASE_IDX + 7, hal_usart, hal_usart_flush, void(hal_usart_interface_t))
 80a1960:	b508      	push	{r3, lr}
 80a1962:	4b02      	ldr	r3, [pc, #8]	; (80a196c <hal_usart_flush+0xc>)
 80a1964:	681b      	ldr	r3, [r3, #0]
 80a1966:	6b5b      	ldr	r3, [r3, #52]	; 0x34
 80a1968:	9301      	str	r3, [sp, #4]
 80a196a:	bd08      	pop	{r3, pc}
 80a196c:	080601c4 	.word	0x080601c4

080a1970 <hal_usart_is_enabled>:
DYNALIB_FN(BASE_IDX + 8, hal_usart, hal_usart_is_enabled, bool(hal_usart_interface_t))
 80a1970:	b508      	push	{r3, lr}
 80a1972:	4b02      	ldr	r3, [pc, #8]	; (80a197c <hal_usart_is_enabled+0xc>)
 80a1974:	681b      	ldr	r3, [r3, #0]
 80a1976:	6b9b      	ldr	r3, [r3, #56]	; 0x38
 80a1978:	9301      	str	r3, [sp, #4]
 80a197a:	bd08      	pop	{r3, pc}
 80a197c:	080601c4 	.word	0x080601c4

080a1980 <hal_usart_available_data_for_write>:
DYNALIB_FN(BASE_IDX + 9, hal_usart, hal_usart_half_duplex, void(hal_usart_interface_t, bool))
DYNALIB_FN(BASE_IDX + 10, hal_usart, hal_usart_available_data_for_write, int32_t(hal_usart_interface_t))
 80a1980:	b508      	push	{r3, lr}
 80a1982:	4b02      	ldr	r3, [pc, #8]	; (80a198c <hal_usart_available_data_for_write+0xc>)
 80a1984:	681b      	ldr	r3, [r3, #0]
 80a1986:	6c1b      	ldr	r3, [r3, #64]	; 0x40
 80a1988:	9301      	str	r3, [sp, #4]
 80a198a:	bd08      	pop	{r3, pc}
 80a198c:	080601c4 	.word	0x080601c4

080a1990 <hal_usart_init_ex>:
DYNALIB_FN(BASE_IDX2 + 0, hal_usart, hal_usart_begin_config, void(hal_usart_interface_t serial, uint32_t baud, uint32_t config, void *ptr))
DYNALIB_FN(BASE_IDX2 + 1, hal_usart, hal_usart_write_nine_bits, uint32_t(hal_usart_interface_t serial, uint16_t data))
DYNALIB_FN(BASE_IDX2 + 2, hal_usart, hal_usart_send_break, void(hal_usart_interface_t, void*))
DYNALIB_FN(BASE_IDX2 + 3, hal_usart, hal_usart_break_detected, uint8_t(hal_usart_interface_t))
DYNALIB_FN(BASE_IDX2 + 4, hal_usart, hal_usart_sleep, int(hal_usart_interface_t serial, bool, void*))
DYNALIB_FN(BASE_IDX2 + 5, hal_usart, hal_usart_init_ex, int(hal_usart_interface_t, const hal_usart_buffer_config_t*, void*))
 80a1990:	b508      	push	{r3, lr}
 80a1992:	4b02      	ldr	r3, [pc, #8]	; (80a199c <hal_usart_init_ex+0xc>)
 80a1994:	681b      	ldr	r3, [r3, #0]
 80a1996:	6e1b      	ldr	r3, [r3, #96]	; 0x60
 80a1998:	9301      	str	r3, [sp, #4]
 80a199a:	bd08      	pop	{r3, pc}
 80a199c:	080601c4 	.word	0x080601c4

080a19a0 <hal_i2c_begin>:
#endif

DYNALIB_FN(BASE_IDX + 0, hal_i2c, hal_i2c_set_speed, void(hal_i2c_interface_t, uint32_t, void*))
DYNALIB_FN(BASE_IDX + 1, hal_i2c, hal_i2c_enable_dma_mode, void(hal_i2c_interface_t, bool, void*))
DYNALIB_FN(BASE_IDX + 2, hal_i2c, hal_i2c_stretch_clock, void(hal_i2c_interface_t, bool, void*))
DYNALIB_FN(BASE_IDX + 3, hal_i2c, hal_i2c_begin, void(hal_i2c_interface_t, hal_i2c_mode_t, uint8_t, void*))
 80a19a0:	b508      	push	{r3, lr}
 80a19a2:	4b02      	ldr	r3, [pc, #8]	; (80a19ac <hal_i2c_begin+0xc>)
 80a19a4:	681b      	ldr	r3, [r3, #0]
 80a19a6:	6cdb      	ldr	r3, [r3, #76]	; 0x4c
 80a19a8:	9301      	str	r3, [sp, #4]
 80a19aa:	bd08      	pop	{r3, pc}
 80a19ac:	080601ac 	.word	0x080601ac

080a19b0 <hal_i2c_begin_transmission>:
DYNALIB_FN(BASE_IDX + 4, hal_i2c, hal_i2c_end, void(hal_i2c_interface_t, void*))
DYNALIB_FN(BASE_IDX + 5, hal_i2c, hal_i2c_request, uint32_t(hal_i2c_interface_t, uint8_t, uint8_t, uint8_t, void*))
DYNALIB_FN(BASE_IDX + 6, hal_i2c, hal_i2c_begin_transmission, void(hal_i2c_interface_t, uint8_t, const hal_i2c_transmission_config_t*))
 80a19b0:	b508      	push	{r3, lr}
 80a19b2:	4b02      	ldr	r3, [pc, #8]	; (80a19bc <hal_i2c_begin_transmission+0xc>)
 80a19b4:	681b      	ldr	r3, [r3, #0]
 80a19b6:	6d9b      	ldr	r3, [r3, #88]	; 0x58
 80a19b8:	9301      	str	r3, [sp, #4]
 80a19ba:	bd08      	pop	{r3, pc}
 80a19bc:	080601ac 	.word	0x080601ac

080a19c0 <hal_i2c_end_transmission>:
DYNALIB_FN(BASE_IDX + 7, hal_i2c, hal_i2c_end_transmission, uint8_t(hal_i2c_interface_t, uint8_t, void*))
 80a19c0:	b508      	push	{r3, lr}
 80a19c2:	4b02      	ldr	r3, [pc, #8]	; (80a19cc <hal_i2c_end_transmission+0xc>)
 80a19c4:	681b      	ldr	r3, [r3, #0]
 80a19c6:	6ddb      	ldr	r3, [r3, #92]	; 0x5c
 80a19c8:	9301      	str	r3, [sp, #4]
 80a19ca:	bd08      	pop	{r3, pc}
 80a19cc:	080601ac 	.word	0x080601ac

080a19d0 <hal_i2c_write>:
DYNALIB_FN(BASE_IDX + 8, hal_i2c, hal_i2c_write, uint32_t(hal_i2c_interface_t, uint8_t, void*))
 80a19d0:	b508      	push	{r3, lr}
 80a19d2:	4b02      	ldr	r3, [pc, #8]	; (80a19dc <hal_i2c_write+0xc>)
 80a19d4:	681b      	ldr	r3, [r3, #0]
 80a19d6:	6e1b      	ldr	r3, [r3, #96]	; 0x60
 80a19d8:	9301      	str	r3, [sp, #4]
 80a19da:	bd08      	pop	{r3, pc}
 80a19dc:	080601ac 	.word	0x080601ac

080a19e0 <hal_i2c_available>:
DYNALIB_FN(BASE_IDX + 9, hal_i2c, hal_i2c_available, int32_t(hal_i2c_interface_t, void*))
 80a19e0:	b508      	push	{r3, lr}
 80a19e2:	4b02      	ldr	r3, [pc, #8]	; (80a19ec <hal_i2c_available+0xc>)
 80a19e4:	681b      	ldr	r3, [r3, #0]
 80a19e6:	6e5b      	ldr	r3, [r3, #100]	; 0x64
 80a19e8:	9301      	str	r3, [sp, #4]
 80a19ea:	bd08      	pop	{r3, pc}
 80a19ec:	080601ac 	.word	0x080601ac

080a19f0 <hal_i2c_read>:
DYNALIB_FN(BASE_IDX + 10, hal_i2c, hal_i2c_read, int32_t(hal_i2c_interface_t, void*))
 80a19f0:	b508      	push	{r3, lr}
 80a19f2:	4b02      	ldr	r3, [pc, #8]	; (80a19fc <hal_i2c_read+0xc>)
 80a19f4:	681b      	ldr	r3, [r3, #0]
 80a19f6:	6e9b      	ldr	r3, [r3, #104]	; 0x68
 80a19f8:	9301      	str	r3, [sp, #4]
 80a19fa:	bd08      	pop	{r3, pc}
 80a19fc:	080601ac 	.word	0x080601ac

080a1a00 <hal_i2c_peek>:
DYNALIB_FN(BASE_IDX + 11, hal_i2c, hal_i2c_peek, int32_t(hal_i2c_interface_t, void*))
 80a1a00:	b508      	push	{r3, lr}
 80a1a02:	4b02      	ldr	r3, [pc, #8]	; (80a1a0c <hal_i2c_peek+0xc>)
 80a1a04:	681b      	ldr	r3, [r3, #0]
 80a1a06:	6edb      	ldr	r3, [r3, #108]	; 0x6c
 80a1a08:	9301      	str	r3, [sp, #4]
 80a1a0a:	bd08      	pop	{r3, pc}
 80a1a0c:	080601ac 	.word	0x080601ac

080a1a10 <hal_i2c_flush>:
DYNALIB_FN(BASE_IDX + 12, hal_i2c, hal_i2c_flush, void(hal_i2c_interface_t, void*))
 80a1a10:	b508      	push	{r3, lr}
 80a1a12:	4b02      	ldr	r3, [pc, #8]	; (80a1a1c <hal_i2c_flush+0xc>)
 80a1a14:	681b      	ldr	r3, [r3, #0]
 80a1a16:	6f1b      	ldr	r3, [r3, #112]	; 0x70
 80a1a18:	9301      	str	r3, [sp, #4]
 80a1a1a:	bd08      	pop	{r3, pc}
 80a1a1c:	080601ac 	.word	0x080601ac

080a1a20 <hal_i2c_is_enabled>:
DYNALIB_FN(BASE_IDX + 13, hal_i2c, hal_i2c_is_enabled, bool(hal_i2c_interface_t, void*))
 80a1a20:	b508      	push	{r3, lr}
 80a1a22:	4b02      	ldr	r3, [pc, #8]	; (80a1a2c <hal_i2c_is_enabled+0xc>)
 80a1a24:	681b      	ldr	r3, [r3, #0]
 80a1a26:	6f5b      	ldr	r3, [r3, #116]	; 0x74
 80a1a28:	9301      	str	r3, [sp, #4]
 80a1a2a:	bd08      	pop	{r3, pc}
 80a1a2c:	080601ac 	.word	0x080601ac

080a1a30 <hal_i2c_init>:
DYNALIB_FN(BASE_IDX + 14, hal_i2c, hal_i2c_set_callback_on_received, void(hal_i2c_interface_t, void(*)(int), void*))
DYNALIB_FN(BASE_IDX + 15, hal_i2c, hal_i2c_set_callback_on_requested, void(hal_i2c_interface_t, void(*)(void), void*))
DYNALIB_FN(BASE_IDX + 16, hal_i2c, hal_i2c_init, int(hal_i2c_interface_t, const hal_i2c_config_t*))
 80a1a30:	b508      	push	{r3, lr}
 80a1a32:	4b03      	ldr	r3, [pc, #12]	; (80a1a40 <hal_i2c_init+0x10>)
 80a1a34:	681b      	ldr	r3, [r3, #0]
 80a1a36:	f8d3 3080 	ldr.w	r3, [r3, #128]	; 0x80
 80a1a3a:	9301      	str	r3, [sp, #4]
 80a1a3c:	bd08      	pop	{r3, pc}
 80a1a3e:	0000      	.short	0x0000
 80a1a40:	080601ac 	.word	0x080601ac

080a1a44 <hal_spi_init>:
DYNALIB_FN(2, hal_spi, hal_spi_set_bit_order, void(hal_spi_interface_t, uint8_t))
DYNALIB_FN(3, hal_spi, hal_spi_set_data_mode, void(hal_spi_interface_t, uint8_t))
DYNALIB_FN(4, hal_spi, hal_spi_set_clock_divider, void(hal_spi_interface_t, uint8_t))
DYNALIB_FN(5, hal_spi, hal_spi_transfer, uint16_t(hal_spi_interface_t, uint16_t))
DYNALIB_FN(6, hal_spi, hal_spi_is_enabled_deprecated, bool(void))
DYNALIB_FN(7, hal_spi, hal_spi_init, void(hal_spi_interface_t))
 80a1a44:	b508      	push	{r3, lr}
 80a1a46:	4b02      	ldr	r3, [pc, #8]	; (80a1a50 <hal_spi_init+0xc>)
 80a1a48:	681b      	ldr	r3, [r3, #0]
 80a1a4a:	69db      	ldr	r3, [r3, #28]
 80a1a4c:	9301      	str	r3, [sp, #4]
 80a1a4e:	bd08      	pop	{r3, pc}
 80a1a50:	080601b4 	.word	0x080601b4

080a1a54 <hal_spi_is_enabled>:
DYNALIB_FN(8, hal_spi, hal_spi_is_enabled, bool(hal_spi_interface_t))
 80a1a54:	b508      	push	{r3, lr}
 80a1a56:	4b02      	ldr	r3, [pc, #8]	; (80a1a60 <hal_spi_is_enabled+0xc>)
 80a1a58:	681b      	ldr	r3, [r3, #0]
 80a1a5a:	6a1b      	ldr	r3, [r3, #32]
 80a1a5c:	9301      	str	r3, [sp, #4]
 80a1a5e:	bd08      	pop	{r3, pc}
 80a1a60:	080601b4 	.word	0x080601b4

080a1a64 <HAL_USB_USART_Init>:
#endif

DYNALIB_BEGIN(hal_usb)

#ifdef USB_CDC_ENABLE
DYNALIB_FN(0, hal_usb, HAL_USB_USART_Init, void(HAL_USB_USART_Serial, const HAL_USB_USART_Config*))
 80a1a64:	b508      	push	{r3, lr}
 80a1a66:	4b02      	ldr	r3, [pc, #8]	; (80a1a70 <HAL_USB_USART_Init+0xc>)
 80a1a68:	681b      	ldr	r3, [r3, #0]
 80a1a6a:	681b      	ldr	r3, [r3, #0]
 80a1a6c:	9301      	str	r3, [sp, #4]
 80a1a6e:	bd08      	pop	{r3, pc}
 80a1a70:	080601d8 	.word	0x080601d8

080a1a74 <HAL_USB_USART_Begin>:
DYNALIB_FN(1, hal_usb, HAL_USB_USART_Begin, void(HAL_USB_USART_Serial, uint32_t, void *))
 80a1a74:	b508      	push	{r3, lr}
 80a1a76:	4b02      	ldr	r3, [pc, #8]	; (80a1a80 <HAL_USB_USART_Begin+0xc>)
 80a1a78:	681b      	ldr	r3, [r3, #0]
 80a1a7a:	685b      	ldr	r3, [r3, #4]
 80a1a7c:	9301      	str	r3, [sp, #4]
 80a1a7e:	bd08      	pop	{r3, pc}
 80a1a80:	080601d8 	.word	0x080601d8

080a1a84 <HAL_USB_USART_Available_Data>:
DYNALIB_FN(2, hal_usb, HAL_USB_USART_End, void(HAL_USB_USART_Serial))
DYNALIB_FN(3, hal_usb, HAL_USB_USART_Baud_Rate, unsigned int(HAL_USB_USART_Serial))
DYNALIB_FN(4, hal_usb, HAL_USB_USART_Available_Data, int32_t(HAL_USB_USART_Serial))
 80a1a84:	b508      	push	{r3, lr}
 80a1a86:	4b02      	ldr	r3, [pc, #8]	; (80a1a90 <HAL_USB_USART_Available_Data+0xc>)
 80a1a88:	681b      	ldr	r3, [r3, #0]
 80a1a8a:	691b      	ldr	r3, [r3, #16]
 80a1a8c:	9301      	str	r3, [sp, #4]
 80a1a8e:	bd08      	pop	{r3, pc}
 80a1a90:	080601d8 	.word	0x080601d8

080a1a94 <HAL_USB_USART_Available_Data_For_Write>:
DYNALIB_FN(5, hal_usb, HAL_USB_USART_Available_Data_For_Write, int32_t(HAL_USB_USART_Serial))
 80a1a94:	b508      	push	{r3, lr}
 80a1a96:	4b02      	ldr	r3, [pc, #8]	; (80a1aa0 <HAL_USB_USART_Available_Data_For_Write+0xc>)
 80a1a98:	681b      	ldr	r3, [r3, #0]
 80a1a9a:	695b      	ldr	r3, [r3, #20]
 80a1a9c:	9301      	str	r3, [sp, #4]
 80a1a9e:	bd08      	pop	{r3, pc}
 80a1aa0:	080601d8 	.word	0x080601d8

080a1aa4 <HAL_USB_USART_Receive_Data>:
DYNALIB_FN(6, hal_usb, HAL_USB_USART_Receive_Data, int32_t(HAL_USB_USART_Serial, uint8_t))
 80a1aa4:	b508      	push	{r3, lr}
 80a1aa6:	4b02      	ldr	r3, [pc, #8]	; (80a1ab0 <HAL_USB_USART_Receive_Data+0xc>)
 80a1aa8:	681b      	ldr	r3, [r3, #0]
 80a1aaa:	699b      	ldr	r3, [r3, #24]
 80a1aac:	9301      	str	r3, [sp, #4]
 80a1aae:	bd08      	pop	{r3, pc}
 80a1ab0:	080601d8 	.word	0x080601d8

080a1ab4 <HAL_USB_USART_Send_Data>:
DYNALIB_FN(7, hal_usb, HAL_USB_USART_Send_Data, int32_t(HAL_USB_USART_Serial, uint8_t))
 80a1ab4:	b508      	push	{r3, lr}
 80a1ab6:	4b02      	ldr	r3, [pc, #8]	; (80a1ac0 <HAL_USB_USART_Send_Data+0xc>)
 80a1ab8:	681b      	ldr	r3, [r3, #0]
 80a1aba:	69db      	ldr	r3, [r3, #28]
 80a1abc:	9301      	str	r3, [sp, #4]
 80a1abe:	bd08      	pop	{r3, pc}
 80a1ac0:	080601d8 	.word	0x080601d8

080a1ac4 <HAL_USB_USART_Flush_Data>:
DYNALIB_FN(8, hal_usb, HAL_USB_USART_Flush_Data, void(HAL_USB_USART_Serial))
 80a1ac4:	b508      	push	{r3, lr}
 80a1ac6:	4b02      	ldr	r3, [pc, #8]	; (80a1ad0 <HAL_USB_USART_Flush_Data+0xc>)
 80a1ac8:	681b      	ldr	r3, [r3, #0]
 80a1aca:	6a1b      	ldr	r3, [r3, #32]
 80a1acc:	9301      	str	r3, [sp, #4]
 80a1ace:	bd08      	pop	{r3, pc}
 80a1ad0:	080601d8 	.word	0x080601d8

080a1ad4 <inet_gethostbyname>:
DYNALIB_FN(14, hal_wlan, wlan_set_error_count, void(uint32_t))
DYNALIB_FN(15, hal_wlan, wlan_fetch_ipconfig, int(WLanConfig*))
DYNALIB_FN(16, hal_wlan, wlan_setup, void(void))

DYNALIB_FN(17, hal_wlan, HAL_NET_SetNetWatchDog, uint32_t(uint32_t))
DYNALIB_FN(18, hal_wlan, inet_gethostbyname, int(const char*, uint16_t, HAL_IPAddress*, network_interface_t, void*))
 80a1ad4:	b508      	push	{r3, lr}
 80a1ad6:	4b02      	ldr	r3, [pc, #8]	; (80a1ae0 <inet_gethostbyname+0xc>)
 80a1ad8:	681b      	ldr	r3, [r3, #0]
 80a1ada:	6c9b      	ldr	r3, [r3, #72]	; 0x48
 80a1adc:	9301      	str	r3, [sp, #4]
 80a1ade:	bd08      	pop	{r3, pc}
 80a1ae0:	080601c0 	.word	0x080601c0

080a1ae4 <set_system_mode>:
#endif

DYNALIB_BEGIN(system)

DYNALIB_FN(0, system, system_mode, System_Mode_TypeDef(void))
DYNALIB_FN(1, system, set_system_mode, void(System_Mode_TypeDef))
 80a1ae4:	b508      	push	{r3, lr}
 80a1ae6:	4b02      	ldr	r3, [pc, #8]	; (80a1af0 <set_system_mode+0xc>)
 80a1ae8:	681b      	ldr	r3, [r3, #0]
 80a1aea:	685b      	ldr	r3, [r3, #4]
 80a1aec:	9301      	str	r3, [sp, #4]
 80a1aee:	bd08      	pop	{r3, pc}
 80a1af0:	080601a4 	.word	0x080601a4

080a1af4 <system_delay_ms>:

DYNALIB_FN(2, system, set_ymodem_serial_flash_update_handler, void(ymodem_serial_flash_update_handler))
DYNALIB_FN(3, system, system_firmwareUpdate, bool(Stream*, void*))
DYNALIB_FN(4, system, system_fileTransfer, bool(system_file_transfer_t*, void*))

DYNALIB_FN(5, system, system_delay_ms, void(unsigned long, bool))
 80a1af4:	b508      	push	{r3, lr}
 80a1af6:	4b02      	ldr	r3, [pc, #8]	; (80a1b00 <system_delay_ms+0xc>)
 80a1af8:	681b      	ldr	r3, [r3, #0]
 80a1afa:	695b      	ldr	r3, [r3, #20]
 80a1afc:	9301      	str	r3, [sp, #4]
 80a1afe:	bd08      	pop	{r3, pc}
 80a1b00:	080601a4 	.word	0x080601a4

080a1b04 <system_ctrl_set_app_request_handler>:
DYNALIB_FN(BASE_IDX + 6, system, led_pattern_period, uint16_t(int, int, void*))
DYNALIB_FN(BASE_IDX + 7, system, system_set_tester_handlers, int(system_tester_handlers_t*, void*))
DYNALIB_FN(BASE_IDX + 8, system, system_format_diag_data, int(const uint16_t*, size_t, unsigned, appender_fn, void*, void*))

// Control requests
DYNALIB_FN(BASE_IDX + 9, system, system_ctrl_set_app_request_handler, int(ctrl_request_handler_fn, void*))
 80a1b04:	b508      	push	{r3, lr}
 80a1b06:	4b03      	ldr	r3, [pc, #12]	; (80a1b14 <system_ctrl_set_app_request_handler+0x10>)
 80a1b08:	681b      	ldr	r3, [r3, #0]
 80a1b0a:	f8d3 3090 	ldr.w	r3, [r3, #144]	; 0x90
 80a1b0e:	9301      	str	r3, [sp, #4]
 80a1b10:	bd08      	pop	{r3, pc}
 80a1b12:	0000      	.short	0x0000
 80a1b14:	080601a4 	.word	0x080601a4

080a1b18 <system_ctrl_set_result>:
DYNALIB_FN(BASE_IDX + 10, system, system_ctrl_alloc_reply_data, int(ctrl_request*, size_t, void*))
DYNALIB_FN(BASE_IDX + 11, system, system_ctrl_free_request_data, void(ctrl_request*, void*))
DYNALIB_FN(BASE_IDX + 12, system, system_ctrl_set_result, void(ctrl_request*, int, ctrl_completion_handler_fn, void*, void*))
 80a1b18:	b508      	push	{r3, lr}
 80a1b1a:	4b03      	ldr	r3, [pc, #12]	; (80a1b28 <system_ctrl_set_result+0x10>)
 80a1b1c:	681b      	ldr	r3, [r3, #0]
 80a1b1e:	f8d3 309c 	ldr.w	r3, [r3, #156]	; 0x9c
 80a1b22:	9301      	str	r3, [sp, #4]
 80a1b24:	bd08      	pop	{r3, pc}
 80a1b26:	0000      	.short	0x0000
 80a1b28:	080601a4 	.word	0x080601a4

080a1b2c <network_connect>:
#endif

DYNALIB_BEGIN(system_net)

DYNALIB_FN(0, system_net, network_config, const void*(network_handle_t, uint32_t, void*))
DYNALIB_FN(1, system_net, network_connect, void(network_handle_t, uint32_t, uint32_t, void*))
 80a1b2c:	b508      	push	{r3, lr}
 80a1b2e:	4b02      	ldr	r3, [pc, #8]	; (80a1b38 <network_connect+0xc>)
 80a1b30:	681b      	ldr	r3, [r3, #0]
 80a1b32:	685b      	ldr	r3, [r3, #4]
 80a1b34:	9301      	str	r3, [sp, #4]
 80a1b36:	bd08      	pop	{r3, pc}
 80a1b38:	080601c8 	.word	0x080601c8

080a1b3c <network_connecting>:
DYNALIB_FN(2, system_net, network_connecting, bool(network_handle_t, uint32_t, void*))
 80a1b3c:	b508      	push	{r3, lr}
 80a1b3e:	4b02      	ldr	r3, [pc, #8]	; (80a1b48 <network_connecting+0xc>)
 80a1b40:	681b      	ldr	r3, [r3, #0]
 80a1b42:	689b      	ldr	r3, [r3, #8]
 80a1b44:	9301      	str	r3, [sp, #4]
 80a1b46:	bd08      	pop	{r3, pc}
 80a1b48:	080601c8 	.word	0x080601c8

080a1b4c <network_disconnect>:
DYNALIB_FN(3, system_net, network_disconnect, void(network_handle_t, uint32_t, void*))
 80a1b4c:	b508      	push	{r3, lr}
 80a1b4e:	4b02      	ldr	r3, [pc, #8]	; (80a1b58 <network_disconnect+0xc>)
 80a1b50:	681b      	ldr	r3, [r3, #0]
 80a1b52:	68db      	ldr	r3, [r3, #12]
 80a1b54:	9301      	str	r3, [sp, #4]
 80a1b56:	bd08      	pop	{r3, pc}
 80a1b58:	080601c8 	.word	0x080601c8

080a1b5c <network_ready>:
DYNALIB_FN(4, system_net, network_ready, bool(network_handle_t, uint32_t, void*))
 80a1b5c:	b508      	push	{r3, lr}
 80a1b5e:	4b02      	ldr	r3, [pc, #8]	; (80a1b68 <network_ready+0xc>)
 80a1b60:	681b      	ldr	r3, [r3, #0]
 80a1b62:	691b      	ldr	r3, [r3, #16]
 80a1b64:	9301      	str	r3, [sp, #4]
 80a1b66:	bd08      	pop	{r3, pc}
 80a1b68:	080601c8 	.word	0x080601c8

080a1b6c <network_on>:
DYNALIB_FN(5, system_net, network_on, void(network_handle_t, uint32_t, uint32_t, void*))
 80a1b6c:	b508      	push	{r3, lr}
 80a1b6e:	4b02      	ldr	r3, [pc, #8]	; (80a1b78 <network_on+0xc>)
 80a1b70:	681b      	ldr	r3, [r3, #0]
 80a1b72:	695b      	ldr	r3, [r3, #20]
 80a1b74:	9301      	str	r3, [sp, #4]
 80a1b76:	bd08      	pop	{r3, pc}
 80a1b78:	080601c8 	.word	0x080601c8

080a1b7c <network_off>:
DYNALIB_FN(6, system_net, network_off, void(network_handle_t, uint32_t, uint32_t, void*))
 80a1b7c:	b508      	push	{r3, lr}
 80a1b7e:	4b02      	ldr	r3, [pc, #8]	; (80a1b88 <network_off+0xc>)
 80a1b80:	681b      	ldr	r3, [r3, #0]
 80a1b82:	699b      	ldr	r3, [r3, #24]
 80a1b84:	9301      	str	r3, [sp, #4]
 80a1b86:	bd08      	pop	{r3, pc}
 80a1b88:	080601c8 	.word	0x080601c8

080a1b8c <network_listen>:
DYNALIB_FN(7, system_net, network_listen, void(network_handle_t, uint32_t, void*))
 80a1b8c:	b508      	push	{r3, lr}
 80a1b8e:	4b02      	ldr	r3, [pc, #8]	; (80a1b98 <network_listen+0xc>)
 80a1b90:	681b      	ldr	r3, [r3, #0]
 80a1b92:	69db      	ldr	r3, [r3, #28]
 80a1b94:	9301      	str	r3, [sp, #4]
 80a1b96:	bd08      	pop	{r3, pc}
 80a1b98:	080601c8 	.word	0x080601c8

080a1b9c <network_listening>:
DYNALIB_FN(8, system_net, network_listening, bool(network_handle_t, uint32_t, void*))
 80a1b9c:	b508      	push	{r3, lr}
 80a1b9e:	4b02      	ldr	r3, [pc, #8]	; (80a1ba8 <network_listening+0xc>)
 80a1ba0:	681b      	ldr	r3, [r3, #0]
 80a1ba2:	6a1b      	ldr	r3, [r3, #32]
 80a1ba4:	9301      	str	r3, [sp, #4]
 80a1ba6:	bd08      	pop	{r3, pc}
 80a1ba8:	080601c8 	.word	0x080601c8

080a1bac <network_set_listen_timeout>:
DYNALIB_FN(9, system_net, network_has_credentials, bool(network_handle_t, uint32_t, void*))
DYNALIB_FN(10, system_net, network_set_credentials, int(network_handle_t, uint32_t, NetworkCredentials*, void*))
DYNALIB_FN(11, system_net, network_clear_credentials, bool(network_handle_t, uint32_t, NetworkCredentials*, void*))
DYNALIB_FN(12, system_net, network_set_listen_timeout, void(network_handle_t, uint16_t, void*))
 80a1bac:	b508      	push	{r3, lr}
 80a1bae:	4b02      	ldr	r3, [pc, #8]	; (80a1bb8 <network_set_listen_timeout+0xc>)
 80a1bb0:	681b      	ldr	r3, [r3, #0]
 80a1bb2:	6b1b      	ldr	r3, [r3, #48]	; 0x30
 80a1bb4:	9301      	str	r3, [sp, #4]
 80a1bb6:	bd08      	pop	{r3, pc}
 80a1bb8:	080601c8 	.word	0x080601c8

080a1bbc <network_get_listen_timeout>:
DYNALIB_FN(13, system_net, network_get_listen_timeout, uint16_t(network_handle_t, uint32_t, void*))
 80a1bbc:	b508      	push	{r3, lr}
 80a1bbe:	4b02      	ldr	r3, [pc, #8]	; (80a1bc8 <network_get_listen_timeout+0xc>)
 80a1bc0:	681b      	ldr	r3, [r3, #0]
 80a1bc2:	6b5b      	ldr	r3, [r3, #52]	; 0x34
 80a1bc4:	9301      	str	r3, [sp, #4]
 80a1bc6:	bd08      	pop	{r3, pc}
 80a1bc8:	080601c8 	.word	0x080601c8

080a1bcc <network_is_on>:
DYNALIB_FN(14, system_net, network_set_hostname, int(network_handle_t, uint32_t, const char*, void*))
DYNALIB_FN(15, system_net, network_get_hostname, int(network_handle_t, uint32_t, char*, size_t, void*))
DYNALIB_FN(16, system_net, network_is_on, bool(network_handle_t, void*))
 80a1bcc:	b508      	push	{r3, lr}
 80a1bce:	4b02      	ldr	r3, [pc, #8]	; (80a1bd8 <network_is_on+0xc>)
 80a1bd0:	681b      	ldr	r3, [r3, #0]
 80a1bd2:	6c1b      	ldr	r3, [r3, #64]	; 0x40
 80a1bd4:	9301      	str	r3, [sp, #4]
 80a1bd6:	bd08      	pop	{r3, pc}
 80a1bd8:	080601c8 	.word	0x080601c8

080a1bdc <network_is_off>:
DYNALIB_FN(17, system_net, network_is_off, bool(network_handle_t, void*))
 80a1bdc:	b508      	push	{r3, lr}
 80a1bde:	4b02      	ldr	r3, [pc, #8]	; (80a1be8 <network_is_off+0xc>)
 80a1be0:	681b      	ldr	r3, [r3, #0]
 80a1be2:	6c5b      	ldr	r3, [r3, #68]	; 0x44
 80a1be4:	9301      	str	r3, [sp, #4]
 80a1be6:	bd08      	pop	{r3, pc}
 80a1be8:	080601c8 	.word	0x080601c8

080a1bec <spark_set_random_seed_from_cloud_handler>:
DYNALIB_FN(10, system_cloud, spark_unsubscribe, void(void*))
DYNALIB_FN(11, system_cloud, spark_sync_time, bool(void*))
DYNALIB_FN(12, system_cloud, spark_sync_time_pending, bool(void*))
DYNALIB_FN(13, system_cloud, spark_sync_time_last, system_tick_t(time32_t*, time_t*))
DYNALIB_FN(14, system_cloud, spark_set_connection_property, int(unsigned, unsigned, const void*, void*))
DYNALIB_FN(15, system_cloud, spark_set_random_seed_from_cloud_handler, int(void (*handler)(unsigned int), void*))
 80a1bec:	b508      	push	{r3, lr}
 80a1bee:	4b02      	ldr	r3, [pc, #8]	; (80a1bf8 <spark_set_random_seed_from_cloud_handler+0xc>)
 80a1bf0:	681b      	ldr	r3, [r3, #0]
 80a1bf2:	6bdb      	ldr	r3, [r3, #60]	; 0x3c
 80a1bf4:	9301      	str	r3, [sp, #4]
 80a1bf6:	bd08      	pop	{r3, pc}
 80a1bf8:	080601cc 	.word	0x080601cc

080a1bfc <malloc>:
#include "hal_platform.h"
#endif // defined(DYNALIB_EXPORT) || (defined(DYNALIB_IMPORT) && !defined(RT_DYNALIB_NO_DEPENDENCY_BREAKING_IMPORTS))

DYNALIB_BEGIN(rt)

DYNALIB_FN(0, rt, malloc, void*(size_t))
 80a1bfc:	b508      	push	{r3, lr}
 80a1bfe:	4b02      	ldr	r3, [pc, #8]	; (80a1c08 <malloc+0xc>)
 80a1c00:	681b      	ldr	r3, [r3, #0]
 80a1c02:	681b      	ldr	r3, [r3, #0]
 80a1c04:	9301      	str	r3, [sp, #4]
 80a1c06:	bd08      	pop	{r3, pc}
 80a1c08:	080601a0 	.word	0x080601a0

080a1c0c <free>:
DYNALIB_FN(1, rt, free, void(void*))
 80a1c0c:	b508      	push	{r3, lr}
 80a1c0e:	4b02      	ldr	r3, [pc, #8]	; (80a1c18 <free+0xc>)
 80a1c10:	681b      	ldr	r3, [r3, #0]
 80a1c12:	685b      	ldr	r3, [r3, #4]
 80a1c14:	9301      	str	r3, [sp, #4]
 80a1c16:	bd08      	pop	{r3, pc}
 80a1c18:	080601a0 	.word	0x080601a0

080a1c1c <__assert_func>:
// on Gen 2 platforms without breaking inter-module dependencies.
// RT is currently being imported into system-part1 from system-part2,
// which is the reverse direction.

#if defined(DYNALIB_EXPORT) || (defined(DYNALIB_IMPORT) && !defined(RT_DYNALIB_NO_DEPENDENCY_BREAKING_IMPORTS))
DYNALIB_FN(16, rt, __assert_func, void(const char*, int, const char*, const char*))
 80a1c1c:	b508      	push	{r3, lr}
 80a1c1e:	4b02      	ldr	r3, [pc, #8]	; (80a1c28 <__assert_func+0xc>)
 80a1c20:	681b      	ldr	r3, [r3, #0]
 80a1c22:	6c1b      	ldr	r3, [r3, #64]	; 0x40
 80a1c24:	9301      	str	r3, [sp, #4]
 80a1c26:	bd08      	pop	{r3, pc}
 80a1c28:	080601a0 	.word	0x080601a0

080a1c2c <newlib_impure_ptr_callback>:
DYNALIB_FN(17, rt, newlib_impure_ptr_callback, void(void (*)(struct _reent*, size_t, uint32_t, void*), void*))
 80a1c2c:	b508      	push	{r3, lr}
 80a1c2e:	4b02      	ldr	r3, [pc, #8]	; (80a1c38 <newlib_impure_ptr_callback+0xc>)
 80a1c30:	681b      	ldr	r3, [r3, #0]
 80a1c32:	6c5b      	ldr	r3, [r3, #68]	; 0x44
 80a1c34:	9301      	str	r3, [sp, #4]
 80a1c36:	bd08      	pop	{r3, pc}
 80a1c38:	080601a0 	.word	0x080601a0

080a1c3c <_ZN8SPIClassC1E19hal_spi_interface_t>:
    }
    return particle::SPISettings(info->clock, info->bit_order, info->data_mode);
}
} // namespace

SPIClass::SPIClass(hal_spi_interface_t spi)
 80a1c3c:	b570      	push	{r4, r5, r6, lr}
    /**
     * Creates a shared mutex.
     */
    RecursiveMutex(os_mutex_recursive_t handle) : handle_(handle) {}

    RecursiveMutex() : handle_(nullptr)
 80a1c3e:	2600      	movs	r6, #0
 80a1c40:	4604      	mov	r4, r0
 80a1c42:	460d      	mov	r5, r1
 80a1c44:	f840 6f08 	str.w	r6, [r0, #8]!
    {
        os_mutex_recursive_create(&handle_);
 80a1c48:	f7ff fe5a 	bl	80a1900 <os_mutex_recursive_create>
{
    _spi = spi;
    hal_spi_init(_spi);
 80a1c4c:	4628      	mov	r0, r5
    _spi = spi;
 80a1c4e:	7025      	strb	r5, [r4, #0]
    hal_spi_init(_spi);
 80a1c50:	f7ff fef8 	bl	80a1a44 <hal_spi_init>
    _dividerReference = SPI_CLK_SYSTEM; // 0 indicates the system clock
}
 80a1c54:	4620      	mov	r0, r4
    _dividerReference = SPI_CLK_SYSTEM; // 0 indicates the system clock
 80a1c56:	6066      	str	r6, [r4, #4]
}
 80a1c58:	bd70      	pop	{r4, r5, r6, pc}
	...

080a1c5c <_GLOBAL__sub_I_System>:
} // namespace particle

// particle::Flag<TagT, ValueT>
template<typename TagT, typename ValueT>
inline particle::Flag<TagT, ValueT>::Flag(ValueT val) :
        val_(val) {
 80a1c5c:	2202      	movs	r2, #2

class SystemSleepResult {
public:
    SystemSleepResult()
            : wakeupSource_(nullptr),
              error_(SYSTEM_ERROR_NONE) {
 80a1c5e:	2000      	movs	r0, #0
 80a1c60:	4b04      	ldr	r3, [pc, #16]	; (80a1c74 <_GLOBAL__sub_I_System+0x18>)
 80a1c62:	601a      	str	r2, [r3, #0]
 80a1c64:	4b04      	ldr	r3, [pc, #16]	; (80a1c78 <_GLOBAL__sub_I_System+0x1c>)
    SleepResult() {}
 80a1c66:	4a05      	ldr	r2, [pc, #20]	; (80a1c7c <_GLOBAL__sub_I_System+0x20>)
              error_(SYSTEM_ERROR_NONE) {
 80a1c68:	e9c3 0000 	strd	r0, r0, [r3]
    SleepResult() {}
 80a1c6c:	609a      	str	r2, [r3, #8]

class SystemClass {
public:

    SystemClass(System_Mode_TypeDef mode = DEFAULT) {
        set_system_mode(mode);
 80a1c6e:	f7ff bf39 	b.w	80a1ae4 <set_system_mode>
 80a1c72:	bf00      	nop
 80a1c74:	200000c0 	.word	0x200000c0
 80a1c78:	200000b4 	.word	0x200000b4
 80a1c7c:	ffff0000 	.word	0xffff0000

080a1c80 <_ZN5Print5writeEPKhj>:

// Public Methods //////////////////////////////////////////////////////////////

/* default implementation: may be overridden */
size_t Print::write(const uint8_t *buffer, size_t size)
{
 80a1c80:	b5f8      	push	{r3, r4, r5, r6, r7, lr}
 80a1c82:	4606      	mov	r6, r0
 80a1c84:	460d      	mov	r5, r1
  size_t n = 0;
 80a1c86:	2400      	movs	r4, #0
 80a1c88:	188f      	adds	r7, r1, r2
  while (size--) {
 80a1c8a:	42bd      	cmp	r5, r7
 80a1c8c:	d00c      	beq.n	80a1ca8 <_ZN5Print5writeEPKhj+0x28>
     int chunk = write(*buffer++);
 80a1c8e:	6833      	ldr	r3, [r6, #0]
 80a1c90:	4630      	mov	r0, r6
 80a1c92:	689b      	ldr	r3, [r3, #8]
 80a1c94:	f815 1b01 	ldrb.w	r1, [r5], #1
 80a1c98:	4798      	blx	r3
     if (chunk>=0)
 80a1c9a:	1e03      	subs	r3, r0, #0
 80a1c9c:	db01      	blt.n	80a1ca2 <_ZN5Print5writeEPKhj+0x22>
         n += chunk;
 80a1c9e:	441c      	add	r4, r3
  while (size--) {
 80a1ca0:	e7f3      	b.n	80a1c8a <_ZN5Print5writeEPKhj+0xa>
     int chunk = write(*buffer++);
 80a1ca2:	2c00      	cmp	r4, #0
 80a1ca4:	bf08      	it	eq
 80a1ca6:	461c      	moveq	r4, r3
             n = chunk;
         break;
     }
  }
  return n;
}
 80a1ca8:	4620      	mov	r0, r4
 80a1caa:	bdf8      	pop	{r3, r4, r5, r6, r7, pc}

080a1cac <_ZN5Print5writeEPKc>:

    int getWriteError() { return write_error; }
    void clearWriteError() { setWriteError(0); }

    virtual size_t write(uint8_t) = 0;
    size_t write(const char *str) {
 80a1cac:	b570      	push	{r4, r5, r6, lr}
 80a1cae:	4605      	mov	r5, r0
      if (str == NULL) return 0;
 80a1cb0:	460c      	mov	r4, r1
      return write((const uint8_t *)str, strlen(str));
    }
 80a1cb2:	4608      	mov	r0, r1
      if (str == NULL) return 0;
 80a1cb4:	b149      	cbz	r1, 80a1cca <_ZN5Print5writeEPKc+0x1e>
      return write((const uint8_t *)str, strlen(str));
 80a1cb6:	f001 fc05 	bl	80a34c4 <strlen>
 80a1cba:	682b      	ldr	r3, [r5, #0]
 80a1cbc:	4602      	mov	r2, r0
 80a1cbe:	4621      	mov	r1, r4
 80a1cc0:	4628      	mov	r0, r5
    }
 80a1cc2:	e8bd 4070 	ldmia.w	sp!, {r4, r5, r6, lr}
      return write((const uint8_t *)str, strlen(str));
 80a1cc6:	68db      	ldr	r3, [r3, #12]
 80a1cc8:	4718      	bx	r3
    }
 80a1cca:	bd70      	pop	{r4, r5, r6, pc}

080a1ccc <_ZN5Print5printEPKc>:

size_t Print::print(const char str[])
{
 80a1ccc:	b508      	push	{r3, lr}
  return write(str);
 80a1cce:	f7ff ffed 	bl	80a1cac <_ZN5Print5writeEPKc>
}
 80a1cd2:	bd08      	pop	{r3, pc}

080a1cd4 <_ZN5Print5printEc>:

size_t Print::print(char c)
{
  return write(c);
 80a1cd4:	6803      	ldr	r3, [r0, #0]
 80a1cd6:	689b      	ldr	r3, [r3, #8]
 80a1cd8:	4718      	bx	r3

080a1cda <_ZN5Print7printlnEv>:
{
  return print(reinterpret_cast<const char*>(str));
}

size_t Print::println(void)
{
 80a1cda:	b538      	push	{r3, r4, r5, lr}
  size_t n = print('\r');
 80a1cdc:	210d      	movs	r1, #13
{
 80a1cde:	4605      	mov	r5, r0
  size_t n = print('\r');
 80a1ce0:	f7ff fff8 	bl	80a1cd4 <_ZN5Print5printEc>
  n += print('\n');
 80a1ce4:	210a      	movs	r1, #10
  size_t n = print('\r');
 80a1ce6:	4604      	mov	r4, r0
  n += print('\n');
 80a1ce8:	4628      	mov	r0, r5
 80a1cea:	f7ff fff3 	bl	80a1cd4 <_ZN5Print5printEc>
  return n;
}
 80a1cee:	4420      	add	r0, r4
 80a1cf0:	bd38      	pop	{r3, r4, r5, pc}

080a1cf2 <_ZN5Print7printlnEPKc>:

size_t Print::println(const char c[])
{
 80a1cf2:	b538      	push	{r3, r4, r5, lr}
 80a1cf4:	4605      	mov	r5, r0
  return write(str);
 80a1cf6:	f7ff ffd9 	bl	80a1cac <_ZN5Print5writeEPKc>
 80a1cfa:	4604      	mov	r4, r0
  size_t n = print(c);
  n += println();
 80a1cfc:	4628      	mov	r0, r5
 80a1cfe:	f7ff ffec 	bl	80a1cda <_ZN5Print7printlnEv>
  return n;
}
 80a1d02:	4420      	add	r0, r4
 80a1d04:	bd38      	pop	{r3, r4, r5, pc}

080a1d06 <_ZN5Print11printNumberEmh>:

size_t Print::printNumber(unsigned long n, uint8_t base) {
  char buf[8 * sizeof(n) + 1]; // Assumes 8-bit chars plus zero byte.
  char *str = &buf[sizeof(buf) - 1];

  *str = '\0';
 80a1d06:	2300      	movs	r3, #0

  // prevent crash if called with base == 1
  if (base < 2) base = 10;
 80a1d08:	2a01      	cmp	r2, #1
 80a1d0a:	bf98      	it	ls
 80a1d0c:	220a      	movls	r2, #10
size_t Print::printNumber(unsigned long n, uint8_t base) {
 80a1d0e:	b530      	push	{r4, r5, lr}
 80a1d10:	b08b      	sub	sp, #44	; 0x2c
 80a1d12:	460c      	mov	r4, r1
  *str = '\0';
 80a1d14:	f88d 3024 	strb.w	r3, [sp, #36]	; 0x24
  if (base < 2) base = 10;
 80a1d18:	a909      	add	r1, sp, #36	; 0x24

  do {
   decltype(n) m = n;
   n /= base;
 80a1d1a:	4625      	mov	r5, r4
 80a1d1c:	fbb4 f4f2 	udiv	r4, r4, r2
   char c = m - base * n;
 80a1d20:	fb04 5312 	mls	r3, r4, r2, r5
 80a1d24:	b2db      	uxtb	r3, r3
   *--str = c < 10 ? c + '0' : c + 'A' - 10;
 80a1d26:	2b09      	cmp	r3, #9
 80a1d28:	bf94      	ite	ls
 80a1d2a:	3330      	addls	r3, #48	; 0x30
 80a1d2c:	3337      	addhi	r3, #55	; 0x37
 80a1d2e:	b2db      	uxtb	r3, r3
  } while(n);
 80a1d30:	42aa      	cmp	r2, r5
   *--str = c < 10 ? c + '0' : c + 'A' - 10;
 80a1d32:	f801 3d01 	strb.w	r3, [r1, #-1]!
  } while(n);
 80a1d36:	d9f0      	bls.n	80a1d1a <_ZN5Print11printNumberEmh+0x14>

  return write(str);
 80a1d38:	f7ff ffb8 	bl	80a1cac <_ZN5Print5writeEPKc>
}
 80a1d3c:	b00b      	add	sp, #44	; 0x2c
 80a1d3e:	bd30      	pop	{r4, r5, pc}

080a1d40 <_ZN5Print10printFloatEdh>:

  return write(str);
}

size_t Print::printFloat(double number, uint8_t digits)
{
 80a1d40:	e92d 4ff7 	stmdb	sp!, {r0, r1, r2, r4, r5, r6, r7, r8, r9, sl, fp, lr}
 80a1d44:	4605      	mov	r5, r0
  size_t n = 0;

  if (isnan(number)) return print("nan");
 80a1d46:	4619      	mov	r1, r3
 80a1d48:	4610      	mov	r0, r2
{
 80a1d4a:	4692      	mov	sl, r2
 80a1d4c:	461f      	mov	r7, r3
 80a1d4e:	f89d 6030 	ldrb.w	r6, [sp, #48]	; 0x30
  if (isnan(number)) return print("nan");
 80a1d52:	f001 f9b1 	bl	80a30b8 <__aeabi_dcmpun>
 80a1d56:	b140      	cbz	r0, 80a1d6a <_ZN5Print10printFloatEdh+0x2a>
  return write(str);
 80a1d58:	4951      	ldr	r1, [pc, #324]	; (80a1ea0 <_ZN5Print10printFloatEdh+0x160>)
 80a1d5a:	4628      	mov	r0, r5
 80a1d5c:	f7ff ffa6 	bl	80a1cac <_ZN5Print5writeEPKc>
 80a1d60:	4604      	mov	r4, r0
    n += print(toPrint);
    remainder -= toPrint;
  }

  return n;
}
 80a1d62:	4620      	mov	r0, r4
 80a1d64:	b003      	add	sp, #12
 80a1d66:	e8bd 8ff0 	ldmia.w	sp!, {r4, r5, r6, r7, r8, r9, sl, fp, pc}
  && !_GLIBCXX_NO_OBSOLETE_ISINF_ISNAN_DYNAMIC
  using ::isinf;
#else
  constexpr bool
  isinf(double __x)
  { return __builtin_isinf(__x); }
 80a1d6a:	f027 4400 	bic.w	r4, r7, #2147483648	; 0x80000000
  if (isinf(number)) return print("inf");
 80a1d6e:	f04f 32ff 	mov.w	r2, #4294967295
 80a1d72:	4650      	mov	r0, sl
 80a1d74:	4621      	mov	r1, r4
 80a1d76:	4b4b      	ldr	r3, [pc, #300]	; (80a1ea4 <_ZN5Print10printFloatEdh+0x164>)
 80a1d78:	f001 f99e 	bl	80a30b8 <__aeabi_dcmpun>
 80a1d7c:	b948      	cbnz	r0, 80a1d92 <_ZN5Print10printFloatEdh+0x52>
 80a1d7e:	f04f 32ff 	mov.w	r2, #4294967295
 80a1d82:	4650      	mov	r0, sl
 80a1d84:	4621      	mov	r1, r4
 80a1d86:	4b47      	ldr	r3, [pc, #284]	; (80a1ea4 <_ZN5Print10printFloatEdh+0x164>)
 80a1d88:	f001 f978 	bl	80a307c <__aeabi_dcmple>
 80a1d8c:	b908      	cbnz	r0, 80a1d92 <_ZN5Print10printFloatEdh+0x52>
  return write(str);
 80a1d8e:	4946      	ldr	r1, [pc, #280]	; (80a1ea8 <_ZN5Print10printFloatEdh+0x168>)
 80a1d90:	e7e3      	b.n	80a1d5a <_ZN5Print10printFloatEdh+0x1a>
  if (number > 4294967040.0) return print ("ovf");  // constant determined empirically
 80a1d92:	f04f 4260 	mov.w	r2, #3758096384	; 0xe0000000
 80a1d96:	4650      	mov	r0, sl
 80a1d98:	4639      	mov	r1, r7
 80a1d9a:	4b44      	ldr	r3, [pc, #272]	; (80a1eac <_ZN5Print10printFloatEdh+0x16c>)
 80a1d9c:	f001 f982 	bl	80a30a4 <__aeabi_dcmpgt>
 80a1da0:	b108      	cbz	r0, 80a1da6 <_ZN5Print10printFloatEdh+0x66>
  return write(str);
 80a1da2:	4943      	ldr	r1, [pc, #268]	; (80a1eb0 <_ZN5Print10printFloatEdh+0x170>)
 80a1da4:	e7d9      	b.n	80a1d5a <_ZN5Print10printFloatEdh+0x1a>
  if (number <-4294967040.0) return print ("ovf");  // constant determined empirically
 80a1da6:	f04f 4260 	mov.w	r2, #3758096384	; 0xe0000000
 80a1daa:	4650      	mov	r0, sl
 80a1dac:	4639      	mov	r1, r7
 80a1dae:	4b41      	ldr	r3, [pc, #260]	; (80a1eb4 <_ZN5Print10printFloatEdh+0x174>)
 80a1db0:	f001 f95a 	bl	80a3068 <__aeabi_dcmplt>
 80a1db4:	2800      	cmp	r0, #0
 80a1db6:	d1f4      	bne.n	80a1da2 <_ZN5Print10printFloatEdh+0x62>
  if (number < 0.0)
 80a1db8:	2200      	movs	r2, #0
 80a1dba:	2300      	movs	r3, #0
 80a1dbc:	4650      	mov	r0, sl
 80a1dbe:	4639      	mov	r1, r7
 80a1dc0:	f001 f952 	bl	80a3068 <__aeabi_dcmplt>
 80a1dc4:	4604      	mov	r4, r0
 80a1dc6:	b130      	cbz	r0, 80a1dd6 <_ZN5Print10printFloatEdh+0x96>
     n += print('-');
 80a1dc8:	212d      	movs	r1, #45	; 0x2d
 80a1dca:	4628      	mov	r0, r5
 80a1dcc:	f7ff ff82 	bl	80a1cd4 <_ZN5Print5printEc>
 80a1dd0:	4604      	mov	r4, r0
     number = -number;
 80a1dd2:	f107 4700 	add.w	r7, r7, #2147483648	; 0x80000000
  size_t n = 0;
 80a1dd6:	f04f 0b00 	mov.w	fp, #0
  double rounding = 0.5;
 80a1dda:	2000      	movs	r0, #0
    rounding /= 10.0;
 80a1ddc:	f04f 0800 	mov.w	r8, #0
  double rounding = 0.5;
 80a1de0:	4935      	ldr	r1, [pc, #212]	; (80a1eb8 <_ZN5Print10printFloatEdh+0x178>)
    rounding /= 10.0;
 80a1de2:	f8df 90d8 	ldr.w	r9, [pc, #216]	; 80a1ebc <_ZN5Print10printFloatEdh+0x17c>
  for (uint8_t i=0; i<digits; ++i)
 80a1de6:	fa5f f38b 	uxtb.w	r3, fp
 80a1dea:	429e      	cmp	r6, r3
 80a1dec:	d906      	bls.n	80a1dfc <_ZN5Print10printFloatEdh+0xbc>
    rounding /= 10.0;
 80a1dee:	4642      	mov	r2, r8
 80a1df0:	464b      	mov	r3, r9
 80a1df2:	f000 fff1 	bl	80a2dd8 <__aeabi_ddiv>
  for (uint8_t i=0; i<digits; ++i)
 80a1df6:	f10b 0b01 	add.w	fp, fp, #1
 80a1dfa:	e7f4      	b.n	80a1de6 <_ZN5Print10printFloatEdh+0xa6>
  number += rounding;
 80a1dfc:	463b      	mov	r3, r7
 80a1dfe:	4652      	mov	r2, sl
 80a1e00:	f000 fd0a 	bl	80a2818 <__adddf3>
 80a1e04:	4689      	mov	r9, r1
 80a1e06:	4680      	mov	r8, r0
  unsigned long int_part = (unsigned long)number;
 80a1e08:	f001 f994 	bl	80a3134 <__aeabi_d2uiz>
 80a1e0c:	4607      	mov	r7, r0
  double remainder = number - (double)int_part;
 80a1e0e:	f000 fe3f 	bl	80a2a90 <__aeabi_ui2d>
 80a1e12:	4602      	mov	r2, r0
 80a1e14:	460b      	mov	r3, r1
 80a1e16:	4640      	mov	r0, r8
 80a1e18:	4649      	mov	r1, r9
 80a1e1a:	f000 fcfb 	bl	80a2814 <__aeabi_dsub>
            val = n;
        }
#if __GNUC__ >= 9
#pragma GCC diagnostic pop
#endif // __GNUC__ >= 9
        return printNumber(val, base) + t;
 80a1e1e:	220a      	movs	r2, #10
 80a1e20:	4680      	mov	r8, r0
 80a1e22:	4689      	mov	r9, r1
 80a1e24:	4628      	mov	r0, r5
 80a1e26:	4639      	mov	r1, r7
 80a1e28:	f7ff ff6d 	bl	80a1d06 <_ZN5Print11printNumberEmh>
  n += print(int_part);
 80a1e2c:	4404      	add	r4, r0
  if (digits > 0) {
 80a1e2e:	2e00      	cmp	r6, #0
 80a1e30:	d097      	beq.n	80a1d62 <_ZN5Print10printFloatEdh+0x22>
  return write(str);
 80a1e32:	4628      	mov	r0, r5
 80a1e34:	4922      	ldr	r1, [pc, #136]	; (80a1ec0 <_ZN5Print10printFloatEdh+0x180>)
 80a1e36:	f7ff ff39 	bl	80a1cac <_ZN5Print5writeEPKc>
    remainder *= 10.0;
 80a1e3a:	f04f 0a00 	mov.w	sl, #0
 80a1e3e:	f8df b07c 	ldr.w	fp, [pc, #124]	; 80a1ebc <_ZN5Print10printFloatEdh+0x17c>
    n += print(".");
 80a1e42:	4404      	add	r4, r0
  while (digits-- > 0)
 80a1e44:	2e00      	cmp	r6, #0
 80a1e46:	d08c      	beq.n	80a1d62 <_ZN5Print10printFloatEdh+0x22>
    remainder *= 10.0;
 80a1e48:	4652      	mov	r2, sl
 80a1e4a:	465b      	mov	r3, fp
 80a1e4c:	4640      	mov	r0, r8
 80a1e4e:	4649      	mov	r1, r9
 80a1e50:	f000 fe98 	bl	80a2b84 <__aeabi_dmul>
 80a1e54:	4680      	mov	r8, r0
 80a1e56:	4689      	mov	r9, r1
    int toPrint = int(remainder);
 80a1e58:	f001 f944 	bl	80a30e4 <__aeabi_d2iz>
        if (n < 0 && base == 10) {
 80a1e5c:	1e07      	subs	r7, r0, #0
 80a1e5e:	da1b      	bge.n	80a1e98 <_ZN5Print10printFloatEdh+0x158>
            t = print('-');
 80a1e60:	212d      	movs	r1, #45	; 0x2d
 80a1e62:	4628      	mov	r0, r5
 80a1e64:	f7ff ff36 	bl	80a1cd4 <_ZN5Print5printEc>
 80a1e68:	4603      	mov	r3, r0
            val = -n;
 80a1e6a:	4279      	negs	r1, r7
        return printNumber(val, base) + t;
 80a1e6c:	220a      	movs	r2, #10
 80a1e6e:	4628      	mov	r0, r5
 80a1e70:	9301      	str	r3, [sp, #4]
 80a1e72:	f7ff ff48 	bl	80a1d06 <_ZN5Print11printNumberEmh>
 80a1e76:	9b01      	ldr	r3, [sp, #4]
 80a1e78:	3e01      	subs	r6, #1
 80a1e7a:	4403      	add	r3, r0
    remainder -= toPrint;
 80a1e7c:	4638      	mov	r0, r7
    n += print(toPrint);
 80a1e7e:	441c      	add	r4, r3
    remainder -= toPrint;
 80a1e80:	f000 fe16 	bl	80a2ab0 <__aeabi_i2d>
 80a1e84:	4602      	mov	r2, r0
 80a1e86:	460b      	mov	r3, r1
 80a1e88:	4640      	mov	r0, r8
 80a1e8a:	4649      	mov	r1, r9
 80a1e8c:	f000 fcc2 	bl	80a2814 <__aeabi_dsub>
 80a1e90:	b2f6      	uxtb	r6, r6
 80a1e92:	4680      	mov	r8, r0
 80a1e94:	4689      	mov	r9, r1
  while (digits-- > 0)
 80a1e96:	e7d5      	b.n	80a1e44 <_ZN5Print10printFloatEdh+0x104>
            val = n;
 80a1e98:	4639      	mov	r1, r7
        size_t t = 0;
 80a1e9a:	2300      	movs	r3, #0
 80a1e9c:	e7e6      	b.n	80a1e6c <_ZN5Print10printFloatEdh+0x12c>
 80a1e9e:	bf00      	nop
 80a1ea0:	080a362c 	.word	0x080a362c
 80a1ea4:	7fefffff 	.word	0x7fefffff
 80a1ea8:	080a3630 	.word	0x080a3630
 80a1eac:	41efffff 	.word	0x41efffff
 80a1eb0:	080a3634 	.word	0x080a3634
 80a1eb4:	c1efffff 	.word	0xc1efffff
 80a1eb8:	3fe00000 	.word	0x3fe00000
 80a1ebc:	40240000 	.word	0x40240000
 80a1ec0:	080a3638 	.word	0x080a3638

080a1ec4 <_ZN5Print5printEfi>:
{
 80a1ec4:	b537      	push	{r0, r1, r2, r4, r5, lr}
 80a1ec6:	4605      	mov	r5, r0
 80a1ec8:	4614      	mov	r4, r2
  return printFloat((double)n, digits);
 80a1eca:	4608      	mov	r0, r1
 80a1ecc:	f000 fe02 	bl	80a2ad4 <__aeabi_f2d>
 80a1ed0:	b2e4      	uxtb	r4, r4
 80a1ed2:	4602      	mov	r2, r0
 80a1ed4:	460b      	mov	r3, r1
 80a1ed6:	4628      	mov	r0, r5
 80a1ed8:	9400      	str	r4, [sp, #0]
 80a1eda:	f7ff ff31 	bl	80a1d40 <_ZN5Print10printFloatEdh>
}
 80a1ede:	b003      	add	sp, #12
 80a1ee0:	bd30      	pop	{r4, r5, pc}
	...

080a1ee4 <_GLOBAL__sub_I__ZN5spark3LogE>:
    // This handler doesn't support direct logging
}

// spark::Logger
inline spark::Logger::Logger(const char *name) :
        name_(name) {
 80a1ee4:	4b01      	ldr	r3, [pc, #4]	; (80a1eec <_GLOBAL__sub_I__ZN5spark3LogE+0x8>)
 80a1ee6:	4a02      	ldr	r2, [pc, #8]	; (80a1ef0 <_GLOBAL__sub_I__ZN5spark3LogE+0xc>)
 80a1ee8:	601a      	str	r2, [r3, #0]
#if Wiring_LogConfig

// spark::
void spark::logProcessControlRequest(ctrl_request* req) {
    JSONRequestHandler::process(req);
}
 80a1eea:	4770      	bx	lr
 80a1eec:	200000c4 	.word	0x200000c4
 80a1ef0:	080a363a 	.word	0x080a363a

080a1ef4 <_GLOBAL__sub_I_TIME_FORMAT_DEFAULT>:
            calendar_time_cache = Convert_UnixTime_To_CalendarTime(unix_time);
            unix_time_cache = unix_time;
    }
}

const char* TimeClass::format_spec = TIME_FORMAT_DEFAULT;
 80a1ef4:	4b02      	ldr	r3, [pc, #8]	; (80a1f00 <_GLOBAL__sub_I_TIME_FORMAT_DEFAULT+0xc>)
 80a1ef6:	681a      	ldr	r2, [r3, #0]
 80a1ef8:	4b02      	ldr	r3, [pc, #8]	; (80a1f04 <_GLOBAL__sub_I_TIME_FORMAT_DEFAULT+0x10>)
 80a1efa:	601a      	str	r2, [r3, #0]
{
  return isValid();
}


TimeClass Time;
 80a1efc:	4770      	bx	lr
 80a1efe:	bf00      	nop
 80a1f00:	20000004 	.word	0x20000004
 80a1f04:	200000c8 	.word	0x200000c8

080a1f08 <delay>:
    return (value - fromStart) * (toEnd - toStart) / (fromEnd - fromStart) + toStart;
}

void delay(unsigned long ms)
{
    system_delay_ms(ms, false);
 80a1f08:	2100      	movs	r1, #0
 80a1f0a:	f7ff bdf3 	b.w	80a1af4 <system_delay_ms>
	...

080a1f10 <_GLOBAL__sub_I_RGB>:
	static void
	_M_init_functor(_Any_data& __functor, _Functor&& __f, false_type)
	{ __functor._M_access<_Functor*>() = new _Functor(std::move(__f)); }
      };

    _Function_base() : _M_manager(nullptr) { }
 80a1f10:	2200      	movs	r2, #0
 80a1f12:	4b01      	ldr	r3, [pc, #4]	; (80a1f18 <_GLOBAL__sub_I_RGB+0x8>)
 80a1f14:	609a      	str	r2, [r3, #8]
{
    RGBClass* const d = static_cast<RGBClass*>(data);
    if (d->changeHandler_) {
        d->changeHandler_(r, g, b);
    }
}
 80a1f16:	4770      	bx	lr
 80a1f18:	200000cc 	.word	0x200000cc

080a1f1c <_ZZ21module_user_init_hookENUlP6_reentjmPvE_4_FUNES0_jmS1_>:

void module_user_init_hook()
{
#if HAL_PLATFORM_NEWLIB
    newlib_impure_ptr_callback([](struct _reent* r, size_t size, uint32_t version, void* ctx) -> void {
        _impure_ptr = r;
 80a1f1c:	4b01      	ldr	r3, [pc, #4]	; (80a1f24 <_ZZ21module_user_init_hookENUlP6_reentjmPvE_4_FUNES0_jmS1_+0x8>)
 80a1f1e:	6018      	str	r0, [r3, #0]
    }, nullptr);
 80a1f20:	4770      	bx	lr
 80a1f22:	bf00      	nop
 80a1f24:	20000008 	.word	0x20000008

080a1f28 <serialEventRun>:
{
 80a1f28:	b508      	push	{r3, lr}
    if (serialEvent && Serial.available()>0)
 80a1f2a:	4b13      	ldr	r3, [pc, #76]	; (80a1f78 <serialEventRun+0x50>)
 80a1f2c:	b143      	cbz	r3, 80a1f40 <serialEventRun+0x18>
 80a1f2e:	f000 f975 	bl	80a221c <_Z16_fetch_usbserialv>
 80a1f32:	6803      	ldr	r3, [r0, #0]
 80a1f34:	691b      	ldr	r3, [r3, #16]
 80a1f36:	4798      	blx	r3
 80a1f38:	2800      	cmp	r0, #0
 80a1f3a:	dd01      	ble.n	80a1f40 <serialEventRun+0x18>
        serialEvent();
 80a1f3c:	f3af 8000 	nop.w
    if (serialEvent1 && Serial1.available()>0)
 80a1f40:	4b0e      	ldr	r3, [pc, #56]	; (80a1f7c <serialEventRun+0x54>)
 80a1f42:	b143      	cbz	r3, 80a1f56 <serialEventRun+0x2e>
 80a1f44:	f000 fbf2 	bl	80a272c <_Z22__fetch_global_Serial1v>
 80a1f48:	6803      	ldr	r3, [r0, #0]
 80a1f4a:	691b      	ldr	r3, [r3, #16]
 80a1f4c:	4798      	blx	r3
 80a1f4e:	2800      	cmp	r0, #0
 80a1f50:	dd01      	ble.n	80a1f56 <serialEventRun+0x2e>
        serialEvent1();
 80a1f52:	f3af 8000 	nop.w
    if (serialEventRun2) serialEventRun2();
 80a1f56:	4b0a      	ldr	r3, [pc, #40]	; (80a1f80 <serialEventRun+0x58>)
 80a1f58:	b10b      	cbz	r3, 80a1f5e <serialEventRun+0x36>
 80a1f5a:	f3af 8000 	nop.w
    if (usbSerialEvent1 && USBSerial1.available()>0)
 80a1f5e:	4b09      	ldr	r3, [pc, #36]	; (80a1f84 <serialEventRun+0x5c>)
 80a1f60:	b143      	cbz	r3, 80a1f74 <serialEventRun+0x4c>
 80a1f62:	f000 f995 	bl	80a2290 <_Z17_fetch_usbserial1v>
 80a1f66:	6803      	ldr	r3, [r0, #0]
 80a1f68:	691b      	ldr	r3, [r3, #16]
 80a1f6a:	4798      	blx	r3
 80a1f6c:	2800      	cmp	r0, #0
 80a1f6e:	dd01      	ble.n	80a1f74 <serialEventRun+0x4c>
        usbSerialEvent1();
 80a1f70:	f3af 8000 	nop.w
}
 80a1f74:	bd08      	pop	{r3, pc}
 80a1f76:	bf00      	nop
	...

080a1f88 <_post_loop>:
{
 80a1f88:	b508      	push	{r3, lr}
	serialEventRun();
 80a1f8a:	f7ff ffcd 	bl	80a1f28 <serialEventRun>
		return !timeout_fn;
	}

	static inline system_tick_t current_time()
	{
		return HAL_Timer_Get_Milli_Seconds();
 80a1f8e:	f7ff fcaf 	bl	80a18f0 <HAL_Timer_Get_Milli_Seconds>
	/**
	 * Lifesign that the application is still working normally.
	 */
	static void checkin()
	{
		last_checkin = current_time();
 80a1f92:	4b01      	ldr	r3, [pc, #4]	; (80a1f98 <_post_loop+0x10>)
 80a1f94:	6018      	str	r0, [r3, #0]
}
 80a1f96:	bd08      	pop	{r3, pc}
 80a1f98:	20000450 	.word	0x20000450

080a1f9c <_Z33system_initialize_user_backup_ramv>:
    memcpy(&link_global_retained_start, &link_global_retained_initial_values, len);
 80a1f9c:	4805      	ldr	r0, [pc, #20]	; (80a1fb4 <_Z33system_initialize_user_backup_ramv+0x18>)
 80a1f9e:	4a06      	ldr	r2, [pc, #24]	; (80a1fb8 <_Z33system_initialize_user_backup_ramv+0x1c>)
{
 80a1fa0:	b508      	push	{r3, lr}
    memcpy(&link_global_retained_start, &link_global_retained_initial_values, len);
 80a1fa2:	1a12      	subs	r2, r2, r0
 80a1fa4:	4905      	ldr	r1, [pc, #20]	; (80a1fbc <_Z33system_initialize_user_backup_ramv+0x20>)
 80a1fa6:	f001 fa49 	bl	80a343c <memcpy>
    __backup_sram_signature = signature;
 80a1faa:	4b05      	ldr	r3, [pc, #20]	; (80a1fc0 <_Z33system_initialize_user_backup_ramv+0x24>)
 80a1fac:	4a05      	ldr	r2, [pc, #20]	; (80a1fc4 <_Z33system_initialize_user_backup_ramv+0x28>)
 80a1fae:	601a      	str	r2, [r3, #0]
}
 80a1fb0:	bd08      	pop	{r3, pc}
 80a1fb2:	bf00      	nop
 80a1fb4:	40024000 	.word	0x40024000
 80a1fb8:	40024004 	.word	0x40024004
 80a1fbc:	080a3830 	.word	0x080a3830
 80a1fc0:	40024000 	.word	0x40024000
 80a1fc4:	9a271c1e 	.word	0x9a271c1e

080a1fc8 <_Z27ctrl_request_custom_handlerP12ctrl_request>:
    system_ctrl_set_result(req, SYSTEM_ERROR_NOT_SUPPORTED, nullptr, nullptr, nullptr);
 80a1fc8:	2300      	movs	r3, #0
void __attribute((weak)) ctrl_request_custom_handler(ctrl_request* req) {
 80a1fca:	b507      	push	{r0, r1, r2, lr}
    system_ctrl_set_result(req, SYSTEM_ERROR_NOT_SUPPORTED, nullptr, nullptr, nullptr);
 80a1fcc:	461a      	mov	r2, r3
 80a1fce:	f06f 0177 	mvn.w	r1, #119	; 0x77
 80a1fd2:	9300      	str	r3, [sp, #0]
 80a1fd4:	f7ff fda0 	bl	80a1b18 <system_ctrl_set_result>
}
 80a1fd8:	b003      	add	sp, #12
 80a1fda:	f85d fb04 	ldr.w	pc, [sp], #4
	...

080a1fe0 <_ZL20ctrl_request_handlerP12ctrl_request>:
static void ctrl_request_handler(ctrl_request* req) {
 80a1fe0:	b507      	push	{r0, r1, r2, lr}
    switch (req->type) {
 80a1fe2:	8843      	ldrh	r3, [r0, #2]
 80a1fe4:	2b0a      	cmp	r3, #10
 80a1fe6:	d008      	beq.n	80a1ffa <_ZL20ctrl_request_handlerP12ctrl_request+0x1a>
 80a1fe8:	2b50      	cmp	r3, #80	; 0x50
 80a1fea:	d10b      	bne.n	80a2004 <_ZL20ctrl_request_handlerP12ctrl_request+0x24>
        if (log_process_ctrl_request_callback) {
 80a1fec:	4b09      	ldr	r3, [pc, #36]	; (80a2014 <_ZL20ctrl_request_handlerP12ctrl_request+0x34>)
 80a1fee:	681b      	ldr	r3, [r3, #0]
 80a1ff0:	b14b      	cbz	r3, 80a2006 <_ZL20ctrl_request_handlerP12ctrl_request+0x26>
}
 80a1ff2:	b003      	add	sp, #12
 80a1ff4:	f85d eb04 	ldr.w	lr, [sp], #4
            log_process_ctrl_request_callback(req);
 80a1ff8:	4718      	bx	r3
        ctrl_request_custom_handler(req);
 80a1ffa:	f7ff ffe5 	bl	80a1fc8 <_Z27ctrl_request_custom_handlerP12ctrl_request>
}
 80a1ffe:	b003      	add	sp, #12
 80a2000:	f85d fb04 	ldr.w	pc, [sp], #4
        system_ctrl_set_result(req, SYSTEM_ERROR_NOT_SUPPORTED, nullptr, nullptr, nullptr);
 80a2004:	2300      	movs	r3, #0
 80a2006:	461a      	mov	r2, r3
 80a2008:	f06f 0177 	mvn.w	r1, #119	; 0x77
 80a200c:	9300      	str	r3, [sp, #0]
 80a200e:	f7ff fd83 	bl	80a1b18 <system_ctrl_set_result>
}
 80a2012:	e7f4      	b.n	80a1ffe <_ZL20ctrl_request_handlerP12ctrl_request+0x1e>
 80a2014:	200000e0 	.word	0x200000e0

080a2018 <module_user_init_hook>:
    newlib_impure_ptr_callback([](struct _reent* r, size_t size, uint32_t version, void* ctx) -> void {
 80a2018:	2100      	movs	r1, #0
{
 80a201a:	b510      	push	{r4, lr}
    newlib_impure_ptr_callback([](struct _reent* r, size_t size, uint32_t version, void* ctx) -> void {
 80a201c:	4811      	ldr	r0, [pc, #68]	; (80a2064 <module_user_init_hook+0x4c>)
 80a201e:	f7ff fe05 	bl	80a1c2c <newlib_impure_ptr_callback>
#endif // HAL_PLATFORM_NEWLIB

#if HAL_PLATFORM_BACKUP_RAM
    backup_ram_was_valid_ = __backup_sram_signature == signature;
 80a2022:	4b11      	ldr	r3, [pc, #68]	; (80a2068 <module_user_init_hook+0x50>)
 80a2024:	681a      	ldr	r2, [r3, #0]
 80a2026:	4b11      	ldr	r3, [pc, #68]	; (80a206c <module_user_init_hook+0x54>)
 80a2028:	429a      	cmp	r2, r3
 80a202a:	bf0c      	ite	eq
 80a202c:	2201      	moveq	r2, #1
 80a202e:	2200      	movne	r2, #0
 80a2030:	4b0f      	ldr	r3, [pc, #60]	; (80a2070 <module_user_init_hook+0x58>)
 80a2032:	701a      	strb	r2, [r3, #0]
    if (!backup_ram_was_valid_) {
 80a2034:	d001      	beq.n	80a203a <module_user_init_hook+0x22>
        system_initialize_user_backup_ram();
 80a2036:	f7ff ffb1 	bl	80a1f9c <_Z33system_initialize_user_backup_ramv>
    }
#endif

#if HAL_PLATFORM_RNG
    // Initialize the default stdlib PRNG using hardware RNG as a seed
    const uint32_t seed = HAL_RNG_GetRandomNumber();
 80a203a:	f7ff fc41 	bl	80a18c0 <HAL_RNG_GetRandomNumber>
 80a203e:	4604      	mov	r4, r0
    srand(seed);
 80a2040:	f001 fa12 	bl	80a3468 <srand>

    // If the user defines random_seed_from_cloud, call it with a seed value
    // generated by a hardware RNG as well.
    if (random_seed_from_cloud) {
 80a2044:	4b0b      	ldr	r3, [pc, #44]	; (80a2074 <module_user_init_hook+0x5c>)
 80a2046:	b113      	cbz	r3, 80a204e <module_user_init_hook+0x36>
        random_seed_from_cloud(seed);
 80a2048:	4620      	mov	r0, r4
 80a204a:	f3af 8000 	nop.w
    }
#endif
    // Register the random_seed_from_cloud handler
    spark_set_random_seed_from_cloud_handler(&random_seed_from_cloud, nullptr);
 80a204e:	2100      	movs	r1, #0
 80a2050:	4808      	ldr	r0, [pc, #32]	; (80a2074 <module_user_init_hook+0x5c>)
 80a2052:	f7ff fdcb 	bl	80a1bec <spark_set_random_seed_from_cloud_handler>

    // Register application handler for the control requests
    system_ctrl_set_app_request_handler(ctrl_request_handler, nullptr);
}
 80a2056:	e8bd 4010 	ldmia.w	sp!, {r4, lr}
    system_ctrl_set_app_request_handler(ctrl_request_handler, nullptr);
 80a205a:	2100      	movs	r1, #0
 80a205c:	4806      	ldr	r0, [pc, #24]	; (80a2078 <module_user_init_hook+0x60>)
 80a205e:	f7ff bd51 	b.w	80a1b04 <system_ctrl_set_app_request_handler>
 80a2062:	bf00      	nop
 80a2064:	080a1f1d 	.word	0x080a1f1d
 80a2068:	40024000 	.word	0x40024000
 80a206c:	9a271c1e 	.word	0x9a271c1e
 80a2070:	200000dc 	.word	0x200000dc
 80a2074:	00000000 	.word	0x00000000
 80a2078:	080a1fe1 	.word	0x080a1fe1

080a207c <_ZN9IPAddressD1Ev>:
    IPAddress(uint32_t address);
    // 4 bytes defining the IP address in network order
    IPAddress(const uint8_t* address);
    IPAddress(const HAL_IPAddress& address);

    virtual ~IPAddress() {}
 80a207c:	4770      	bx	lr

080a207e <_ZNK9IPAddress7printToER5Print>:
#endif // Wiring_IPv6
	return address.ipv4==that.address.ipv4;
}

size_t IPAddress::printTo(Print& p) const
{
 80a207e:	b5f8      	push	{r3, r4, r5, r6, r7, lr}
 80a2080:	460e      	mov	r6, r1
 80a2082:	2400      	movs	r4, #0
 80a2084:	f100 0708 	add.w	r7, r0, #8
 80a2088:	1d05      	adds	r5, r0, #4
        return printNumber(val, base) + t;
 80a208a:	f817 1d01 	ldrb.w	r1, [r7, #-1]!
 80a208e:	220a      	movs	r2, #10
 80a2090:	4630      	mov	r0, r6
 80a2092:	f7ff fe38 	bl	80a1d06 <_ZN5Print11printNumberEmh>
#else
#pragma message "HAL_USE_INET_HAL_POSIX is required for IPv6 support in IPAddress::printTo()"
#endif // HAL_USE_INET_HAL_POSIX
#endif // Wiring_IPv6
    size_t n = 0;
    for (int i = 0; i < 4; i++)
 80a2096:	42af      	cmp	r7, r5
    {
        if (n)
            n += p.print('.');
        n += p.print((*this)[i], DEC);
 80a2098:	4404      	add	r4, r0
    for (int i = 0; i < 4; i++)
 80a209a:	d101      	bne.n	80a20a0 <_ZNK9IPAddress7printToER5Print+0x22>
    }
    return n;
}
 80a209c:	4620      	mov	r0, r4
 80a209e:	bdf8      	pop	{r3, r4, r5, r6, r7, pc}
        if (n)
 80a20a0:	2c00      	cmp	r4, #0
 80a20a2:	d0f2      	beq.n	80a208a <_ZNK9IPAddress7printToER5Print+0xc>
            n += p.print('.');
 80a20a4:	212e      	movs	r1, #46	; 0x2e
 80a20a6:	4630      	mov	r0, r6
 80a20a8:	f7ff fe14 	bl	80a1cd4 <_ZN5Print5printEc>
 80a20ac:	4404      	add	r4, r0
 80a20ae:	e7ec      	b.n	80a208a <_ZNK9IPAddress7printToER5Print+0xc>

080a20b0 <_ZN9IPAddressD0Ev>:
 80a20b0:	b510      	push	{r4, lr}
 80a20b2:	4604      	mov	r4, r0
 80a20b4:	2118      	movs	r1, #24
 80a20b6:	f7fd fff2 	bl	80a009e <_ZdlPvj>
 80a20ba:	4620      	mov	r0, r4
 80a20bc:	bd10      	pop	{r4, pc}
	...

080a20c0 <_ZN9IPAddressC1Ev>:
IPAddress::IPAddress()
 80a20c0:	b510      	push	{r4, lr}
 80a20c2:	4604      	mov	r4, r0
 80a20c4:	4b04      	ldr	r3, [pc, #16]	; (80a20d8 <_ZN9IPAddressC1Ev+0x18>)
        return address;
    }

    virtual size_t printTo(Print& p) const;

    void clear() { memset(&address, 0, sizeof (address)); }
 80a20c6:	2211      	movs	r2, #17
 80a20c8:	2100      	movs	r1, #0
 80a20ca:	f840 3b04 	str.w	r3, [r0], #4
 80a20ce:	f001 f9c3 	bl	80a3458 <memset>
}
 80a20d2:	4620      	mov	r0, r4
 80a20d4:	bd10      	pop	{r4, pc}
 80a20d6:	bf00      	nop
 80a20d8:	080a3664 	.word	0x080a3664

080a20dc <_ZN9IPAddressC1ERK16_HAL_IPAddress_t>:
IPAddress::IPAddress(const HAL_IPAddress& address)
 80a20dc:	4603      	mov	r3, r0
 80a20de:	4a07      	ldr	r2, [pc, #28]	; (80a20fc <_ZN9IPAddressC1ERK16_HAL_IPAddress_t+0x20>)
 80a20e0:	b510      	push	{r4, lr}
 80a20e2:	f843 2b04 	str.w	r2, [r3], #4
    memcpy(&this->address, &address, sizeof(address));
 80a20e6:	f101 0210 	add.w	r2, r1, #16
 80a20ea:	f851 4b04 	ldr.w	r4, [r1], #4
 80a20ee:	4291      	cmp	r1, r2
 80a20f0:	f843 4b04 	str.w	r4, [r3], #4
 80a20f4:	d1f9      	bne.n	80a20ea <_ZN9IPAddressC1ERK16_HAL_IPAddress_t+0xe>
 80a20f6:	780a      	ldrb	r2, [r1, #0]
 80a20f8:	701a      	strb	r2, [r3, #0]
}
 80a20fa:	bd10      	pop	{r4, pc}
 80a20fc:	080a3664 	.word	0x080a3664

080a2100 <_ZN9IPAddressC1Em>:
IPAddress::IPAddress(uint32_t addr)
 80a2100:	4a02      	ldr	r2, [pc, #8]	; (80a210c <_ZN9IPAddressC1Em+0xc>)
    address.ipv4 = addr;
 80a2102:	e9c0 2100 	strd	r2, r1, [r0]
        address.v = version;
 80a2106:	2204      	movs	r2, #4
 80a2108:	7502      	strb	r2, [r0, #20]
}
 80a210a:	4770      	bx	lr
 80a210c:	080a3664 	.word	0x080a3664

080a2110 <_ZN9IPAddress8set_ipv4Ehhhh>:
{
 80a2110:	b510      	push	{r4, lr}
    address.ipv4 = b0<<24 | b1 << 16 | b2 << 8 | b3;
 80a2112:	f89d 4008 	ldrb.w	r4, [sp, #8]
 80a2116:	ea44 2403 	orr.w	r4, r4, r3, lsl #8
 80a211a:	2304      	movs	r3, #4
 80a211c:	ea44 4402 	orr.w	r4, r4, r2, lsl #16
 80a2120:	ea44 6401 	orr.w	r4, r4, r1, lsl #24
 80a2124:	6044      	str	r4, [r0, #4]
 80a2126:	7503      	strb	r3, [r0, #20]
}
 80a2128:	bd10      	pop	{r4, pc}
	...

080a212c <_ZN9IPAddressC1Ehhhh>:
IPAddress::IPAddress(uint8_t first_octet, uint8_t second_octet, uint8_t third_octet, uint8_t fourth_octet)
 80a212c:	b513      	push	{r0, r1, r4, lr}
 80a212e:	4c04      	ldr	r4, [pc, #16]	; (80a2140 <_ZN9IPAddressC1Ehhhh+0x14>)
 80a2130:	6004      	str	r4, [r0, #0]
    set_ipv4(first_octet, second_octet, third_octet, fourth_octet);
 80a2132:	f89d 4010 	ldrb.w	r4, [sp, #16]
 80a2136:	9400      	str	r4, [sp, #0]
 80a2138:	f7ff ffea 	bl	80a2110 <_ZN9IPAddress8set_ipv4Ehhhh>
}
 80a213c:	b002      	add	sp, #8
 80a213e:	bd10      	pop	{r4, pc}
 80a2140:	080a3664 	.word	0x080a3664

080a2144 <_ZN9USBSerial14blockOnOverrunEb>:
  HAL_USB_USART_Flush_Data(_serial);
}

void USBSerial::blockOnOverrun(bool block)
{
  _blocking = block;
 80a2144:	7441      	strb	r1, [r0, #17]
}
 80a2146:	4770      	bx	lr

080a2148 <__tcf_0>:
}

USBSerial& _fetch_usbserial()
{
  HAL_USB_USART_Config conf = acquireSerialBuffer();
	static USBSerial _usbserial(HAL_USB_USART_SERIAL, conf);
 80a2148:	4770      	bx	lr

080a214a <_ZN9USBSerialD1Ev>:
#include "usb_hal.h"
#include "system_task.h"
#include "spark_wiring_startup.h"
#include "concurrent_hal.h"

class USBSerial : public Stream
 80a214a:	4770      	bx	lr

080a214c <_ZN9USBSerial4readEv>:
{
 80a214c:	b508      	push	{r3, lr}
	return std::max(-1, (int)HAL_USB_USART_Receive_Data(_serial, false));
 80a214e:	2100      	movs	r1, #0
 80a2150:	7c00      	ldrb	r0, [r0, #16]
 80a2152:	f7ff fca7 	bl	80a1aa4 <HAL_USB_USART_Receive_Data>
}
 80a2156:	ea40 70e0 	orr.w	r0, r0, r0, asr #31
 80a215a:	bd08      	pop	{r3, pc}

080a215c <_ZN9USBSerial4peekEv>:
{
 80a215c:	b508      	push	{r3, lr}
	return std::max(-1, (int)HAL_USB_USART_Receive_Data(_serial, true));
 80a215e:	2101      	movs	r1, #1
 80a2160:	7c00      	ldrb	r0, [r0, #16]
 80a2162:	f7ff fc9f 	bl	80a1aa4 <HAL_USB_USART_Receive_Data>
}
 80a2166:	ea40 70e0 	orr.w	r0, r0, r0, asr #31
 80a216a:	bd08      	pop	{r3, pc}

080a216c <_ZN9USBSerial17availableForWriteEv>:
{
 80a216c:	b508      	push	{r3, lr}
  return std::max(0, (int)HAL_USB_USART_Available_Data_For_Write(_serial));
 80a216e:	7c00      	ldrb	r0, [r0, #16]
 80a2170:	f7ff fc90 	bl	80a1a94 <HAL_USB_USART_Available_Data_For_Write>
}
 80a2174:	ea20 70e0 	bic.w	r0, r0, r0, asr #31
 80a2178:	bd08      	pop	{r3, pc}

080a217a <_ZN9USBSerial9availableEv>:
{
 80a217a:	b508      	push	{r3, lr}
	return std::max(0, (int)HAL_USB_USART_Available_Data(_serial));
 80a217c:	7c00      	ldrb	r0, [r0, #16]
 80a217e:	f7ff fc81 	bl	80a1a84 <HAL_USB_USART_Available_Data>
}
 80a2182:	ea20 70e0 	bic.w	r0, r0, r0, asr #31
 80a2186:	bd08      	pop	{r3, pc}

080a2188 <_ZN9USBSerial5writeEh>:
{
 80a2188:	b538      	push	{r3, r4, r5, lr}
 80a218a:	4604      	mov	r4, r0
  if (HAL_USB_USART_Available_Data_For_Write(_serial) > 0 || _blocking) {
 80a218c:	7c00      	ldrb	r0, [r0, #16]
{
 80a218e:	460d      	mov	r5, r1
  if (HAL_USB_USART_Available_Data_For_Write(_serial) > 0 || _blocking) {
 80a2190:	f7ff fc80 	bl	80a1a94 <HAL_USB_USART_Available_Data_For_Write>
 80a2194:	2800      	cmp	r0, #0
 80a2196:	dc01      	bgt.n	80a219c <_ZN9USBSerial5writeEh+0x14>
 80a2198:	7c60      	ldrb	r0, [r4, #17]
 80a219a:	b128      	cbz	r0, 80a21a8 <_ZN9USBSerial5writeEh+0x20>
    return std::max(0, (int)HAL_USB_USART_Send_Data(_serial, byte));
 80a219c:	4629      	mov	r1, r5
 80a219e:	7c20      	ldrb	r0, [r4, #16]
 80a21a0:	f7ff fc88 	bl	80a1ab4 <HAL_USB_USART_Send_Data>
 80a21a4:	ea20 70e0 	bic.w	r0, r0, r0, asr #31
}
 80a21a8:	bd38      	pop	{r3, r4, r5, pc}

080a21aa <_ZN9USBSerial5flushEv>:
  HAL_USB_USART_Flush_Data(_serial);
 80a21aa:	7c00      	ldrb	r0, [r0, #16]
 80a21ac:	f7ff bc8a 	b.w	80a1ac4 <HAL_USB_USART_Flush_Data>

080a21b0 <_ZN9USBSerialD0Ev>:
 80a21b0:	b510      	push	{r4, lr}
 80a21b2:	4604      	mov	r4, r0
 80a21b4:	2114      	movs	r1, #20
 80a21b6:	f7fd ff72 	bl	80a009e <_ZdlPvj>
 80a21ba:	4620      	mov	r0, r4
 80a21bc:	bd10      	pop	{r4, pc}

080a21be <__tcf_1>:
 80a21be:	4770      	bx	lr

080a21c0 <_ZN9USBSerialC1E20HAL_USB_USART_SerialRK20HAL_USB_USART_Config>:
USBSerial::USBSerial(HAL_USB_USART_Serial serial, const HAL_USB_USART_Config& conf)
 80a21c0:	b510      	push	{r4, lr}
    virtual int available() = 0;
    virtual int read() = 0;
    virtual int peek() = 0;
    virtual void flush() = 0;

    Stream() {_timeout=1000;}
 80a21c2:	f44f 737a 	mov.w	r3, #1000	; 0x3e8
 80a21c6:	4604      	mov	r4, r0
 80a21c8:	4608      	mov	r0, r1
 80a21ca:	2100      	movs	r1, #0
 80a21cc:	e9c4 1301 	strd	r1, r3, [r4, #4]
 80a21d0:	4b04      	ldr	r3, [pc, #16]	; (80a21e4 <_ZN9USBSerialC1E20HAL_USB_USART_SerialRK20HAL_USB_USART_Config+0x24>)
  _serial = serial;
 80a21d2:	7420      	strb	r0, [r4, #16]
USBSerial::USBSerial(HAL_USB_USART_Serial serial, const HAL_USB_USART_Config& conf)
 80a21d4:	6023      	str	r3, [r4, #0]
  _blocking = true;
 80a21d6:	2301      	movs	r3, #1
  HAL_USB_USART_Init(_serial, &conf);
 80a21d8:	4611      	mov	r1, r2
  _blocking = true;
 80a21da:	7463      	strb	r3, [r4, #17]
  HAL_USB_USART_Init(_serial, &conf);
 80a21dc:	f7ff fc42 	bl	80a1a64 <HAL_USB_USART_Init>
}
 80a21e0:	4620      	mov	r0, r4
 80a21e2:	bd10      	pop	{r4, pc}
 80a21e4:	080a3678 	.word	0x080a3678

080a21e8 <_ZN9USBSerial5beginEl>:
    HAL_USB_USART_Begin(_serial, speed, NULL);
 80a21e8:	2200      	movs	r2, #0
 80a21ea:	7c00      	ldrb	r0, [r0, #16]
 80a21ec:	f7ff bc42 	b.w	80a1a74 <HAL_USB_USART_Begin>

080a21f0 <_Z19acquireSerialBufferv>:
{
 80a21f0:	b510      	push	{r4, lr}
 80a21f2:	4604      	mov	r4, r0
  HAL_USB_USART_Config conf = {};
 80a21f4:	2214      	movs	r2, #20
 80a21f6:	2100      	movs	r1, #0
 80a21f8:	f001 f92e 	bl	80a3458 <memset>
  conf.rx_buffer = serial_rx_buffer;
 80a21fc:	4b05      	ldr	r3, [pc, #20]	; (80a2214 <_Z19acquireSerialBufferv+0x24>)
}
 80a21fe:	4620      	mov	r0, r4
  conf.rx_buffer = serial_rx_buffer;
 80a2200:	6063      	str	r3, [r4, #4]
  conf.tx_buffer = serial_tx_buffer;
 80a2202:	4b05      	ldr	r3, [pc, #20]	; (80a2218 <_Z19acquireSerialBufferv+0x28>)
 80a2204:	60e3      	str	r3, [r4, #12]
  conf.rx_buffer_size = USB_RX_BUFFER_SIZE;
 80a2206:	f240 1301 	movw	r3, #257	; 0x101
 80a220a:	8123      	strh	r3, [r4, #8]
  conf.tx_buffer_size = USB_TX_BUFFER_SIZE;
 80a220c:	2381      	movs	r3, #129	; 0x81
 80a220e:	8223      	strh	r3, [r4, #16]
}
 80a2210:	bd10      	pop	{r4, pc}
 80a2212:	bf00      	nop
 80a2214:	20000114 	.word	0x20000114
 80a2218:	20000215 	.word	0x20000215

080a221c <_Z16_fetch_usbserialv>:
{
 80a221c:	b530      	push	{r4, r5, lr}
	static USBSerial _usbserial(HAL_USB_USART_SERIAL, conf);
 80a221e:	4d0e      	ldr	r5, [pc, #56]	; (80a2258 <_Z16_fetch_usbserialv+0x3c>)
{
 80a2220:	b087      	sub	sp, #28
  HAL_USB_USART_Config conf = acquireSerialBuffer();
 80a2222:	a801      	add	r0, sp, #4
 80a2224:	f7ff ffe4 	bl	80a21f0 <_Z19acquireSerialBufferv>
	static USBSerial _usbserial(HAL_USB_USART_SERIAL, conf);
 80a2228:	7829      	ldrb	r1, [r5, #0]
 80a222a:	f3bf 8f5b 	dmb	ish
 80a222e:	f011 0401 	ands.w	r4, r1, #1
 80a2232:	d10e      	bne.n	80a2252 <_Z16_fetch_usbserialv+0x36>
 80a2234:	4628      	mov	r0, r5
 80a2236:	f7fd ff34 	bl	80a00a2 <__cxa_guard_acquire>
 80a223a:	b150      	cbz	r0, 80a2252 <_Z16_fetch_usbserialv+0x36>
 80a223c:	4621      	mov	r1, r4
 80a223e:	aa01      	add	r2, sp, #4
 80a2240:	4806      	ldr	r0, [pc, #24]	; (80a225c <_Z16_fetch_usbserialv+0x40>)
 80a2242:	f7ff ffbd 	bl	80a21c0 <_ZN9USBSerialC1E20HAL_USB_USART_SerialRK20HAL_USB_USART_Config>
 80a2246:	4628      	mov	r0, r5
 80a2248:	f7fd ff30 	bl	80a00ac <__cxa_guard_release>
 80a224c:	4804      	ldr	r0, [pc, #16]	; (80a2260 <_Z16_fetch_usbserialv+0x44>)
 80a224e:	f001 f8ef 	bl	80a3430 <atexit>
	return _usbserial;
}
 80a2252:	4802      	ldr	r0, [pc, #8]	; (80a225c <_Z16_fetch_usbserialv+0x40>)
 80a2254:	b007      	add	sp, #28
 80a2256:	bd30      	pop	{r4, r5, pc}
 80a2258:	200000e4 	.word	0x200000e4
 80a225c:	200000ec 	.word	0x200000ec
 80a2260:	080a2149 	.word	0x080a2149

080a2264 <_Z23acquireUSBSerial1Bufferv>:

#if Wiring_USBSerial1

HAL_USB_USART_Config __attribute__((weak)) acquireUSBSerial1Buffer()
{
 80a2264:	b510      	push	{r4, lr}
 80a2266:	4604      	mov	r4, r0
  HAL_USB_USART_Config conf = {};
 80a2268:	2214      	movs	r2, #20
 80a226a:	2100      	movs	r1, #0
 80a226c:	f001 f8f4 	bl	80a3458 <memset>

#if defined(USB_SERIAL_USERSPACE_BUFFERS) && ((MODULE_FUNCTION == MOD_FUNC_USER_PART) || (MODULE_FUNCTION == MOD_FUNC_MONO_FIRMWARE))
  static uint8_t usbserial1_rx_buffer[USB_RX_BUFFER_SIZE];
  static uint8_t usbserial1_tx_buffer[USB_TX_BUFFER_SIZE];

  conf.rx_buffer = usbserial1_rx_buffer;
 80a2270:	4b05      	ldr	r3, [pc, #20]	; (80a2288 <_Z23acquireUSBSerial1Bufferv+0x24>)
  conf.rx_buffer_size = USB_RX_BUFFER_SIZE;
  conf.tx_buffer_size = USB_TX_BUFFER_SIZE;
#endif

  return conf;
}
 80a2272:	4620      	mov	r0, r4
  conf.rx_buffer = usbserial1_rx_buffer;
 80a2274:	6063      	str	r3, [r4, #4]
  conf.tx_buffer = usbserial1_tx_buffer;
 80a2276:	4b05      	ldr	r3, [pc, #20]	; (80a228c <_Z23acquireUSBSerial1Bufferv+0x28>)
 80a2278:	60e3      	str	r3, [r4, #12]
  conf.rx_buffer_size = USB_RX_BUFFER_SIZE;
 80a227a:	f240 1301 	movw	r3, #257	; 0x101
 80a227e:	8123      	strh	r3, [r4, #8]
  conf.tx_buffer_size = USB_TX_BUFFER_SIZE;
 80a2280:	2381      	movs	r3, #129	; 0x81
 80a2282:	8223      	strh	r3, [r4, #16]
}
 80a2284:	bd10      	pop	{r4, pc}
 80a2286:	bf00      	nop
 80a2288:	20000296 	.word	0x20000296
 80a228c:	20000397 	.word	0x20000397

080a2290 <_Z17_fetch_usbserial1v>:

USBSerial& _fetch_usbserial1()
{
 80a2290:	b510      	push	{r4, lr}
  HAL_USB_USART_Config conf = acquireUSBSerial1Buffer();
  static USBSerial _usbserial1(HAL_USB_USART_SERIAL1, conf);
 80a2292:	4c0e      	ldr	r4, [pc, #56]	; (80a22cc <_Z17_fetch_usbserial1v+0x3c>)
{
 80a2294:	b086      	sub	sp, #24
  HAL_USB_USART_Config conf = acquireUSBSerial1Buffer();
 80a2296:	a801      	add	r0, sp, #4
 80a2298:	f7ff ffe4 	bl	80a2264 <_Z23acquireUSBSerial1Bufferv>
  static USBSerial _usbserial1(HAL_USB_USART_SERIAL1, conf);
 80a229c:	7823      	ldrb	r3, [r4, #0]
 80a229e:	f3bf 8f5b 	dmb	ish
 80a22a2:	07db      	lsls	r3, r3, #31
 80a22a4:	d40e      	bmi.n	80a22c4 <_Z17_fetch_usbserial1v+0x34>
 80a22a6:	4620      	mov	r0, r4
 80a22a8:	f7fd fefb 	bl	80a00a2 <__cxa_guard_acquire>
 80a22ac:	b150      	cbz	r0, 80a22c4 <_Z17_fetch_usbserial1v+0x34>
 80a22ae:	2101      	movs	r1, #1
 80a22b0:	aa01      	add	r2, sp, #4
 80a22b2:	4807      	ldr	r0, [pc, #28]	; (80a22d0 <_Z17_fetch_usbserial1v+0x40>)
 80a22b4:	f7ff ff84 	bl	80a21c0 <_ZN9USBSerialC1E20HAL_USB_USART_SerialRK20HAL_USB_USART_Config>
 80a22b8:	4620      	mov	r0, r4
 80a22ba:	f7fd fef7 	bl	80a00ac <__cxa_guard_release>
 80a22be:	4805      	ldr	r0, [pc, #20]	; (80a22d4 <_Z17_fetch_usbserial1v+0x44>)
 80a22c0:	f001 f8b6 	bl	80a3430 <atexit>
  return _usbserial1;
}
 80a22c4:	4802      	ldr	r0, [pc, #8]	; (80a22d0 <_Z17_fetch_usbserial1v+0x40>)
 80a22c6:	b006      	add	sp, #24
 80a22c8:	bd10      	pop	{r4, pc}
 80a22ca:	bf00      	nop
 80a22cc:	200000e8 	.word	0x200000e8
 80a22d0:	20000100 	.word	0x20000100
 80a22d4:	080a21bf 	.word	0x080a21bf

080a22d8 <_ZN11USARTSerialD1Ev>:
private:
  hal_usart_interface_t _serial;
  bool _blocking;
public:
  USARTSerial(hal_usart_interface_t serial, const hal_usart_buffer_config_t& config);
  virtual ~USARTSerial() {};
 80a22d8:	4770      	bx	lr

080a22da <_ZN11USARTSerial14blockOnOverrunEb>:
    hal_usart_half_duplex(_serial, Enable);
}

void USARTSerial::blockOnOverrun(bool block)
{
  _blocking = block;
 80a22da:	7441      	strb	r1, [r0, #17]
}
 80a22dc:	4770      	bx	lr

080a22de <_ZN11USARTSerial17availableForWriteEv>:


int USARTSerial::availableForWrite(void)
{
 80a22de:	b508      	push	{r3, lr}
  return std::max(0, (int)hal_usart_available_data_for_write(_serial));
 80a22e0:	7c00      	ldrb	r0, [r0, #16]
 80a22e2:	f7ff fb4d 	bl	80a1980 <hal_usart_available_data_for_write>
}
 80a22e6:	ea20 70e0 	bic.w	r0, r0, r0, asr #31
 80a22ea:	bd08      	pop	{r3, pc}

080a22ec <_ZN11USARTSerial9availableEv>:

int USARTSerial::available(void)
{
 80a22ec:	b508      	push	{r3, lr}
  return std::max(0, (int)hal_usart_available(_serial));
 80a22ee:	7c00      	ldrb	r0, [r0, #16]
 80a22f0:	f7ff fb1e 	bl	80a1930 <hal_usart_available>
}
 80a22f4:	ea20 70e0 	bic.w	r0, r0, r0, asr #31
 80a22f8:	bd08      	pop	{r3, pc}

080a22fa <_ZN11USARTSerial4peekEv>:

int USARTSerial::peek(void)
{
 80a22fa:	b508      	push	{r3, lr}
  return std::max(-1, (int)hal_usart_peek(_serial));
 80a22fc:	7c00      	ldrb	r0, [r0, #16]
 80a22fe:	f7ff fb27 	bl	80a1950 <hal_usart_peek>
}
 80a2302:	ea40 70e0 	orr.w	r0, r0, r0, asr #31
 80a2306:	bd08      	pop	{r3, pc}

080a2308 <_ZN11USARTSerial4readEv>:

int USARTSerial::read(void)
{
 80a2308:	b508      	push	{r3, lr}
  return std::max(-1, (int)hal_usart_read(_serial));
 80a230a:	7c00      	ldrb	r0, [r0, #16]
 80a230c:	f7ff fb18 	bl	80a1940 <hal_usart_read>
}
 80a2310:	ea40 70e0 	orr.w	r0, r0, r0, asr #31
 80a2314:	bd08      	pop	{r3, pc}

080a2316 <_ZN11USARTSerial5flushEv>:

void USARTSerial::flush()
{
  hal_usart_flush(_serial);
 80a2316:	7c00      	ldrb	r0, [r0, #16]
 80a2318:	f7ff bb22 	b.w	80a1960 <hal_usart_flush>

080a231c <_ZN11USARTSerial5writeEh>:
}

size_t USARTSerial::write(uint8_t c)
{
 80a231c:	b570      	push	{r4, r5, r6, lr}
  // attempt a write if blocking, or for non-blocking if there is room.
  if (_blocking || hal_usart_available_data_for_write(_serial) > 0) {
 80a231e:	7c46      	ldrb	r6, [r0, #17]
{
 80a2320:	4604      	mov	r4, r0
 80a2322:	460d      	mov	r5, r1
  if (_blocking || hal_usart_available_data_for_write(_serial) > 0) {
 80a2324:	b12e      	cbz	r6, 80a2332 <_ZN11USARTSerial5writeEh+0x16>
    // the HAL always blocks.
	  return hal_usart_write(_serial, c);
 80a2326:	4629      	mov	r1, r5
 80a2328:	7c20      	ldrb	r0, [r4, #16]
  }
  return 0;
}
 80a232a:	e8bd 4070 	ldmia.w	sp!, {r4, r5, r6, lr}
	  return hal_usart_write(_serial, c);
 80a232e:	f7ff baf7 	b.w	80a1920 <hal_usart_write>
  if (_blocking || hal_usart_available_data_for_write(_serial) > 0) {
 80a2332:	7c00      	ldrb	r0, [r0, #16]
 80a2334:	f7ff fb24 	bl	80a1980 <hal_usart_available_data_for_write>
 80a2338:	2800      	cmp	r0, #0
 80a233a:	dcf4      	bgt.n	80a2326 <_ZN11USARTSerial5writeEh+0xa>
}
 80a233c:	4630      	mov	r0, r6
 80a233e:	bd70      	pop	{r4, r5, r6, pc}

080a2340 <_ZN11USARTSerialD0Ev>:
 80a2340:	b510      	push	{r4, lr}
 80a2342:	4604      	mov	r4, r0
 80a2344:	2114      	movs	r1, #20
 80a2346:	f7fd feaa 	bl	80a009e <_ZdlPvj>
 80a234a:	4620      	mov	r0, r4
 80a234c:	bd10      	pop	{r4, pc}
	...

080a2350 <_ZN11USARTSerialC1E21hal_usart_interface_tRK25hal_usart_buffer_config_t>:
USARTSerial::USARTSerial(hal_usart_interface_t serial, const hal_usart_buffer_config_t& config)
 80a2350:	b510      	push	{r4, lr}
 80a2352:	f44f 737a 	mov.w	r3, #1000	; 0x3e8
 80a2356:	4604      	mov	r4, r0
 80a2358:	4608      	mov	r0, r1
 80a235a:	4611      	mov	r1, r2
 80a235c:	2200      	movs	r2, #0
 80a235e:	e9c4 2301 	strd	r2, r3, [r4, #4]
 80a2362:	4b04      	ldr	r3, [pc, #16]	; (80a2374 <_ZN11USARTSerialC1E21hal_usart_interface_tRK25hal_usart_buffer_config_t+0x24>)
  _serial = serial;
 80a2364:	7420      	strb	r0, [r4, #16]
USARTSerial::USARTSerial(hal_usart_interface_t serial, const hal_usart_buffer_config_t& config)
 80a2366:	6023      	str	r3, [r4, #0]
  _blocking = true;
 80a2368:	2301      	movs	r3, #1
 80a236a:	7463      	strb	r3, [r4, #17]
  hal_usart_init_ex(serial, &config, nullptr);
 80a236c:	f7ff fb10 	bl	80a1990 <hal_usart_init_ex>
}
 80a2370:	4620      	mov	r0, r4
 80a2372:	bd10      	pop	{r4, pc}
 80a2374:	080a36a8 	.word	0x080a36a8

080a2378 <_ZN7TwoWireD1Ev>:
private:
  hal_i2c_interface_t _i2c;

public:
  TwoWire(hal_i2c_interface_t i2c, const hal_i2c_config_t& config);
  virtual ~TwoWire() {};
 80a2378:	4770      	bx	lr

080a237a <_ZN7TwoWire5writeEPKhj>:

// must be called in:
// slave tx event callback
// or after beginTransmission(address)
size_t TwoWire::write(const uint8_t *data, size_t quantity)
{
 80a237a:	b5f8      	push	{r3, r4, r5, r6, r7, lr}
 80a237c:	4606      	mov	r6, r0
 80a237e:	4615      	mov	r5, r2
 80a2380:	460c      	mov	r4, r1
 80a2382:	188f      	adds	r7, r1, r2
  // in master/slave transmitter mode
  for(size_t i = 0; i < quantity; ++i)
 80a2384:	42bc      	cmp	r4, r7
 80a2386:	d006      	beq.n	80a2396 <_ZN7TwoWire5writeEPKhj+0x1c>
  {
    write(data[i]);
 80a2388:	6833      	ldr	r3, [r6, #0]
 80a238a:	4630      	mov	r0, r6
 80a238c:	689b      	ldr	r3, [r3, #8]
 80a238e:	f814 1b01 	ldrb.w	r1, [r4], #1
 80a2392:	4798      	blx	r3
  for(size_t i = 0; i < quantity; ++i)
 80a2394:	e7f6      	b.n	80a2384 <_ZN7TwoWire5writeEPKhj+0xa>
  }

  return quantity;
}
 80a2396:	4628      	mov	r0, r5
 80a2398:	bdf8      	pop	{r3, r4, r5, r6, r7, pc}

080a239a <_ZN7TwoWire5writeEh>:
  return hal_i2c_write(_i2c, data, NULL);
 80a239a:	2200      	movs	r2, #0
 80a239c:	7c00      	ldrb	r0, [r0, #16]
 80a239e:	f7ff bb17 	b.w	80a19d0 <hal_i2c_write>

080a23a2 <_ZN7TwoWire9availableEv>:
// must be called in:
// slave rx event callback
// or after requestFrom(address, numBytes)
int TwoWire::available(void)
{
  return hal_i2c_available(_i2c, NULL);
 80a23a2:	2100      	movs	r1, #0
 80a23a4:	7c00      	ldrb	r0, [r0, #16]
 80a23a6:	f7ff bb1b 	b.w	80a19e0 <hal_i2c_available>

080a23aa <_ZN7TwoWire4readEv>:
// must be called in:
// slave rx event callback
// or after requestFrom(address, numBytes)
int TwoWire::read(void)
{
  return hal_i2c_read(_i2c, NULL);
 80a23aa:	2100      	movs	r1, #0
 80a23ac:	7c00      	ldrb	r0, [r0, #16]
 80a23ae:	f7ff bb1f 	b.w	80a19f0 <hal_i2c_read>

080a23b2 <_ZN7TwoWire4peekEv>:
// must be called in:
// slave rx event callback
// or after requestFrom(address, numBytes)
int TwoWire::peek(void)
{
  return hal_i2c_peek(_i2c, NULL);
 80a23b2:	2100      	movs	r1, #0
 80a23b4:	7c00      	ldrb	r0, [r0, #16]
 80a23b6:	f7ff bb23 	b.w	80a1a00 <hal_i2c_peek>

080a23ba <_ZN7TwoWire5flushEv>:
}

void TwoWire::flush(void)
{
  hal_i2c_flush(_i2c, NULL);
 80a23ba:	2100      	movs	r1, #0
 80a23bc:	7c00      	ldrb	r0, [r0, #16]
 80a23be:	f7ff bb27 	b.w	80a1a10 <hal_i2c_flush>

080a23c2 <_ZN7TwoWireD0Ev>:
 80a23c2:	b510      	push	{r4, lr}
 80a23c4:	4604      	mov	r4, r0
 80a23c6:	2114      	movs	r1, #20
 80a23c8:	f7fd fe69 	bl	80a009e <_ZdlPvj>
 80a23cc:	4620      	mov	r0, r4
 80a23ce:	bd10      	pop	{r4, pc}

080a23d0 <_ZN7TwoWireC1E19hal_i2c_interface_tRK16hal_i2c_config_t>:
TwoWire::TwoWire(hal_i2c_interface_t i2c, const hal_i2c_config_t& conf)
 80a23d0:	b510      	push	{r4, lr}
 80a23d2:	f44f 737a 	mov.w	r3, #1000	; 0x3e8
 80a23d6:	4604      	mov	r4, r0
 80a23d8:	4608      	mov	r0, r1
 80a23da:	2100      	movs	r1, #0
 80a23dc:	e9c4 1301 	strd	r1, r3, [r4, #4]
 80a23e0:	4b03      	ldr	r3, [pc, #12]	; (80a23f0 <_ZN7TwoWireC1E19hal_i2c_interface_tRK16hal_i2c_config_t+0x20>)
  hal_i2c_init(_i2c, &conf);
 80a23e2:	4611      	mov	r1, r2
TwoWire::TwoWire(hal_i2c_interface_t i2c, const hal_i2c_config_t& conf)
 80a23e4:	6023      	str	r3, [r4, #0]
  _i2c = i2c;
 80a23e6:	7420      	strb	r0, [r4, #16]
  hal_i2c_init(_i2c, &conf);
 80a23e8:	f7ff fb22 	bl	80a1a30 <hal_i2c_init>
}
 80a23ec:	4620      	mov	r0, r4
 80a23ee:	bd10      	pop	{r4, pc}
 80a23f0:	080a36d8 	.word	0x080a36d8

080a23f4 <_ZN7TwoWire5beginEv>:
	hal_i2c_begin(_i2c, I2C_MODE_MASTER, 0x00, NULL);
 80a23f4:	2300      	movs	r3, #0
 80a23f6:	7c00      	ldrb	r0, [r0, #16]
 80a23f8:	461a      	mov	r2, r3
 80a23fa:	4619      	mov	r1, r3
 80a23fc:	f7ff bad0 	b.w	80a19a0 <hal_i2c_begin>

080a2400 <_ZN7TwoWire17beginTransmissionEh>:
	hal_i2c_begin_transmission(_i2c, address, NULL);
 80a2400:	2200      	movs	r2, #0
 80a2402:	7c00      	ldrb	r0, [r0, #16]
 80a2404:	f7ff bad4 	b.w	80a19b0 <hal_i2c_begin_transmission>

080a2408 <_ZN7TwoWire17beginTransmissionEi>:
  beginTransmission((uint8_t)address);
 80a2408:	b2c9      	uxtb	r1, r1
 80a240a:	f7ff bff9 	b.w	80a2400 <_ZN7TwoWire17beginTransmissionEh>

080a240e <_ZN7TwoWire15endTransmissionEh>:
	return hal_i2c_end_transmission(_i2c, sendStop, NULL);
 80a240e:	2200      	movs	r2, #0
 80a2410:	7c00      	ldrb	r0, [r0, #16]
 80a2412:	f7ff bad5 	b.w	80a19c0 <hal_i2c_end_transmission>

080a2416 <_ZN7TwoWire15endTransmissionEv>:
  return endTransmission(true);
 80a2416:	2101      	movs	r1, #1
 80a2418:	f7ff bff9 	b.w	80a240e <_ZN7TwoWire15endTransmissionEh>

080a241c <_ZN5spark9WiFiClass5readyEv>:
    bool connecting(void) {
        return network_connecting(*this, 0, NULL);
    }

    bool ready(void) {
        return network_ready(*this, 0, NULL);
 80a241c:	2200      	movs	r2, #0
 80a241e:	6840      	ldr	r0, [r0, #4]
 80a2420:	4611      	mov	r1, r2
 80a2422:	f7ff bb9b 	b.w	80a1b5c <network_ready>

080a2426 <_ZN5spark9WiFiClass7resolveEPKc>:
    bool clearCredentials(void) {
        return network_clear_credentials(*this, 0, NULL, NULL);
    }

#if !HAL_USE_INET_HAL_POSIX
    IPAddress resolve(const char* name)
 80a2426:	b5f0      	push	{r4, r5, r6, r7, lr}
 80a2428:	4615      	mov	r5, r2
 80a242a:	b089      	sub	sp, #36	; 0x24
    {
        HAL_IPAddress ip = {};
 80a242c:	2211      	movs	r2, #17
    IPAddress resolve(const char* name)
 80a242e:	460e      	mov	r6, r1
 80a2430:	4604      	mov	r4, r0
        HAL_IPAddress ip = {};
 80a2432:	2100      	movs	r1, #0
 80a2434:	a803      	add	r0, sp, #12
 80a2436:	f001 f80f 	bl	80a3458 <memset>
        return (inet_gethostbyname(name, strlen(name), &ip, *this, NULL) != 0) ?
 80a243a:	4628      	mov	r0, r5
 80a243c:	f001 f842 	bl	80a34c4 <strlen>
 80a2440:	2700      	movs	r7, #0
 80a2442:	b281      	uxth	r1, r0
 80a2444:	6873      	ldr	r3, [r6, #4]
 80a2446:	4628      	mov	r0, r5
 80a2448:	9700      	str	r7, [sp, #0]
 80a244a:	aa03      	add	r2, sp, #12
 80a244c:	f7ff fb42 	bl	80a1ad4 <inet_gethostbyname>
                IPAddress(uint32_t(0)) : IPAddress(ip);
 80a2450:	b130      	cbz	r0, 80a2460 <_ZN5spark9WiFiClass7resolveEPKc+0x3a>
 80a2452:	4639      	mov	r1, r7
 80a2454:	4620      	mov	r0, r4
 80a2456:	f7ff fe53 	bl	80a2100 <_ZN9IPAddressC1Em>
    }
 80a245a:	4620      	mov	r0, r4
 80a245c:	b009      	add	sp, #36	; 0x24
 80a245e:	bdf0      	pop	{r4, r5, r6, r7, pc}
                IPAddress(uint32_t(0)) : IPAddress(ip);
 80a2460:	4620      	mov	r0, r4
 80a2462:	a903      	add	r1, sp, #12
 80a2464:	f7ff fe3a 	bl	80a20dc <_ZN9IPAddressC1ERK16_HAL_IPAddress_t>
 80a2468:	e7f7      	b.n	80a245a <_ZN5spark9WiFiClass7resolveEPKc+0x34>

080a246a <_ZN5spark9WiFiClass9listeningEv>:
        return network_listening(*this, 0, NULL);
 80a246a:	2200      	movs	r2, #0
 80a246c:	6840      	ldr	r0, [r0, #4]
 80a246e:	4611      	mov	r1, r2
 80a2470:	f7ff bb94 	b.w	80a1b9c <network_listening>

080a2474 <_ZN5spark9WiFiClass16getListenTimeoutEv>:
        return network_get_listen_timeout(*this, 0, NULL);
 80a2474:	2200      	movs	r2, #0
 80a2476:	6840      	ldr	r0, [r0, #4]
 80a2478:	4611      	mov	r1, r2
 80a247a:	f7ff bb9f 	b.w	80a1bbc <network_get_listen_timeout>

080a247e <_ZN5spark9WiFiClass16setListenTimeoutEt>:
        network_set_listen_timeout(*this, timeout, NULL);
 80a247e:	2200      	movs	r2, #0
 80a2480:	6840      	ldr	r0, [r0, #4]
 80a2482:	f7ff bb93 	b.w	80a1bac <network_set_listen_timeout>

080a2486 <_ZN5spark9WiFiClass6listenEb>:
        network_listen(*this, begin ? 0 : 1, NULL);
 80a2486:	2200      	movs	r2, #0
 80a2488:	6840      	ldr	r0, [r0, #4]
 80a248a:	f081 0101 	eor.w	r1, r1, #1
 80a248e:	f7ff bb7d 	b.w	80a1b8c <network_listen>

080a2492 <_ZN5spark9WiFiClass3offEv>:
        network_off(*this, 0, 0, NULL);
 80a2492:	2300      	movs	r3, #0
 80a2494:	6840      	ldr	r0, [r0, #4]
 80a2496:	461a      	mov	r2, r3
 80a2498:	4619      	mov	r1, r3
 80a249a:	f7ff bb6f 	b.w	80a1b7c <network_off>

080a249e <_ZN5spark9WiFiClass2onEv>:
        network_on(*this, 0, 0, NULL);
 80a249e:	2300      	movs	r3, #0
 80a24a0:	6840      	ldr	r0, [r0, #4]
 80a24a2:	461a      	mov	r2, r3
 80a24a4:	4619      	mov	r1, r3
 80a24a6:	f7ff bb61 	b.w	80a1b6c <network_on>

080a24aa <_ZN5spark9WiFiClass10connectingEv>:
        return network_connecting(*this, 0, NULL);
 80a24aa:	2200      	movs	r2, #0
 80a24ac:	6840      	ldr	r0, [r0, #4]
 80a24ae:	4611      	mov	r1, r2
 80a24b0:	f7ff bb44 	b.w	80a1b3c <network_connecting>

080a24b4 <_ZN5spark9WiFiClass10disconnectEv>:
        network_disconnect(*this, NETWORK_DISCONNECT_REASON_USER, NULL);
 80a24b4:	2200      	movs	r2, #0
 80a24b6:	2102      	movs	r1, #2
 80a24b8:	6840      	ldr	r0, [r0, #4]
 80a24ba:	f7ff bb47 	b.w	80a1b4c <network_disconnect>

080a24be <_ZN5spark9WiFiClass7connectEj>:
        network_connect(*this, flags, 0, NULL);
 80a24be:	2300      	movs	r3, #0
 80a24c0:	6840      	ldr	r0, [r0, #4]
 80a24c2:	461a      	mov	r2, r3
 80a24c4:	f7ff bb32 	b.w	80a1b2c <network_connect>

080a24c8 <_GLOBAL__sub_I__ZN10WiFiSignalC2ERK21wlan_connected_info_t>:
    static NetworkClass& from(network_interface_t nif);

    virtual IPAddress resolve(const char* name);

    explicit NetworkClass(network_interface_t iface)
            : iface_(iface) {
 80a24c8:	2204      	movs	r2, #4
 80a24ca:	4b02      	ldr	r3, [pc, #8]	; (80a24d4 <_GLOBAL__sub_I__ZN10WiFiSignalC2ERK21wlan_connected_info_t+0xc>)
 80a24cc:	605a      	str	r2, [r3, #4]
            NetworkClass(NETWORK_INTERFACE_WIFI_STA) {
 80a24ce:	4a02      	ldr	r2, [pc, #8]	; (80a24d8 <_GLOBAL__sub_I__ZN10WiFiSignalC2ERK21wlan_connected_info_t+0x10>)
 80a24d0:	601a      	str	r2, [r3, #0]
the same way.
*****************************************************************************/

    WiFiClass WiFi;
    // NetworkClass& Network = WiFi;
}
 80a24d2:	4770      	bx	lr
 80a24d4:	20000418 	.word	0x20000418
 80a24d8:	080a3700 	.word	0x080a3700

080a24dc <_ZN5spark12NetworkClass7connectEj>:
        return Network;
    }
}

void NetworkClass::connect(unsigned flags) {
    network_connect(*this, flags, 0, nullptr);
 80a24dc:	2300      	movs	r3, #0
 80a24de:	6840      	ldr	r0, [r0, #4]
 80a24e0:	461a      	mov	r2, r3
 80a24e2:	f7ff bb23 	b.w	80a1b2c <network_connect>

080a24e6 <_ZN5spark12NetworkClass10disconnectEv>:
}

void NetworkClass::disconnect() {
    network_disconnect(*this, NETWORK_DISCONNECT_REASON_USER, nullptr);
 80a24e6:	2200      	movs	r2, #0
 80a24e8:	2102      	movs	r1, #2
 80a24ea:	6840      	ldr	r0, [r0, #4]
 80a24ec:	f7ff bb2e 	b.w	80a1b4c <network_disconnect>

080a24f0 <_ZN5spark12NetworkClass10connectingEv>:
}

bool NetworkClass::connecting() {
    return network_connecting(*this, 0, nullptr);
 80a24f0:	2200      	movs	r2, #0
 80a24f2:	6840      	ldr	r0, [r0, #4]
 80a24f4:	4611      	mov	r1, r2
 80a24f6:	f7ff bb21 	b.w	80a1b3c <network_connecting>

080a24fa <_ZN5spark12NetworkClass5readyEv>:
}

bool NetworkClass::ready() {
    return network_ready(*this, 0, nullptr);
 80a24fa:	2200      	movs	r2, #0
 80a24fc:	6840      	ldr	r0, [r0, #4]
 80a24fe:	4611      	mov	r1, r2
 80a2500:	f7ff bb2c 	b.w	80a1b5c <network_ready>

080a2504 <_ZN5spark12NetworkClass2onEv>:
}

void NetworkClass::on() {
    network_on(*this, 0, 0, nullptr);
 80a2504:	2300      	movs	r3, #0
 80a2506:	6840      	ldr	r0, [r0, #4]
 80a2508:	461a      	mov	r2, r3
 80a250a:	4619      	mov	r1, r3
 80a250c:	f7ff bb2e 	b.w	80a1b6c <network_on>

080a2510 <_ZN5spark12NetworkClass3offEv>:
}

void NetworkClass::off() {
    network_off(*this, 0, 0, nullptr);
 80a2510:	2300      	movs	r3, #0
 80a2512:	6840      	ldr	r0, [r0, #4]
 80a2514:	461a      	mov	r2, r3
 80a2516:	4619      	mov	r1, r3
 80a2518:	f7ff bb30 	b.w	80a1b7c <network_off>

080a251c <_ZN5spark12NetworkClass4isOnEv>:
}

bool NetworkClass::isOn() {
    return network_is_on(*this, nullptr);
 80a251c:	2100      	movs	r1, #0
 80a251e:	6840      	ldr	r0, [r0, #4]
 80a2520:	f7ff bb54 	b.w	80a1bcc <network_is_on>

080a2524 <_ZN5spark12NetworkClass5isOffEv>:
}

bool NetworkClass::isOff() {
    return network_is_off(*this, nullptr);
 80a2524:	2100      	movs	r1, #0
 80a2526:	6840      	ldr	r0, [r0, #4]
 80a2528:	f7ff bb58 	b.w	80a1bdc <network_is_off>

080a252c <_ZN5spark12NetworkClass6listenEb>:
}

void NetworkClass::listen(bool begin) {
    network_listen(*this, begin ? 0 : 1, nullptr);
 80a252c:	2200      	movs	r2, #0
 80a252e:	6840      	ldr	r0, [r0, #4]
 80a2530:	f081 0101 	eor.w	r1, r1, #1
 80a2534:	f7ff bb2a 	b.w	80a1b8c <network_listen>

080a2538 <_ZN5spark12NetworkClass16setListenTimeoutEt>:
}

void NetworkClass::setListenTimeout(uint16_t timeout) {
    network_set_listen_timeout(*this, timeout, nullptr);
 80a2538:	2200      	movs	r2, #0
 80a253a:	6840      	ldr	r0, [r0, #4]
 80a253c:	f7ff bb36 	b.w	80a1bac <network_set_listen_timeout>

080a2540 <_ZN5spark12NetworkClass16getListenTimeoutEv>:
}

uint16_t NetworkClass::getListenTimeout() {
    return network_get_listen_timeout(*this, 0, nullptr);
 80a2540:	2200      	movs	r2, #0
 80a2542:	6840      	ldr	r0, [r0, #4]
 80a2544:	4611      	mov	r1, r2
 80a2546:	f7ff bb39 	b.w	80a1bbc <network_get_listen_timeout>

080a254a <_ZN5spark12NetworkClass9listeningEv>:
}

bool NetworkClass::listening() {
    return network_listening(*this, 0, nullptr);
 80a254a:	2200      	movs	r2, #0
 80a254c:	6840      	ldr	r0, [r0, #4]
 80a254e:	4611      	mov	r1, r2
 80a2550:	f7ff bb24 	b.w	80a1b9c <network_listening>

080a2554 <_ZN5spark12NetworkClass7resolveEPKc>:
}

IPAddress NetworkClass::resolve(const char* name) {
 80a2554:	b570      	push	{r4, r5, r6, lr}
 80a2556:	4615      	mov	r5, r2
 80a2558:	b08e      	sub	sp, #56	; 0x38
 80a255a:	4604      	mov	r4, r0
    IPAddress addr;
 80a255c:	a808      	add	r0, sp, #32
 80a255e:	f7ff fdaf 	bl	80a20c0 <_ZN9IPAddressC1Ev>
        HAL_IPAddress ip = {};
 80a2562:	2211      	movs	r2, #17
 80a2564:	2100      	movs	r1, #0
 80a2566:	a803      	add	r0, sp, #12
 80a2568:	f000 ff76 	bl	80a3458 <memset>
        return (inet_gethostbyname(name, strlen(name), &ip, *this, NULL) != 0) ?
 80a256c:	2600      	movs	r6, #0
 80a256e:	4628      	mov	r0, r5
 80a2570:	f000 ffa8 	bl	80a34c4 <strlen>
 80a2574:	4b0a      	ldr	r3, [pc, #40]	; (80a25a0 <_ZN5spark12NetworkClass7resolveEPKc+0x4c>)
 80a2576:	9600      	str	r6, [sp, #0]
 80a2578:	b281      	uxth	r1, r0
 80a257a:	685b      	ldr	r3, [r3, #4]
 80a257c:	4628      	mov	r0, r5
 80a257e:	aa03      	add	r2, sp, #12
 80a2580:	f7ff faa8 	bl	80a1ad4 <inet_gethostbyname>
                IPAddress(uint32_t(0)) : IPAddress(ip);
 80a2584:	b130      	cbz	r0, 80a2594 <_ZN5spark12NetworkClass7resolveEPKc+0x40>
 80a2586:	4631      	mov	r1, r6
 80a2588:	4620      	mov	r0, r4
 80a258a:	f7ff fdb9 	bl	80a2100 <_ZN9IPAddressC1Em>
    return Cellular.resolve(name);
#endif // Wiring_Cellular

#endif // HAL_USE_INET_HAL_POSIX
    return addr;
}
 80a258e:	4620      	mov	r0, r4
 80a2590:	b00e      	add	sp, #56	; 0x38
 80a2592:	bd70      	pop	{r4, r5, r6, pc}
 80a2594:	4620      	mov	r0, r4
 80a2596:	a903      	add	r1, sp, #12
 80a2598:	f7ff fda0 	bl	80a20dc <_ZN9IPAddressC1ERK16_HAL_IPAddress_t>
    virtual ~IPAddress() {}
 80a259c:	e7f7      	b.n	80a258e <_ZN5spark12NetworkClass7resolveEPKc+0x3a>
 80a259e:	bf00      	nop
 80a25a0:	20000418 	.word	0x20000418

080a25a4 <_GLOBAL__sub_I__ZN5spark7NetworkE>:
 80a25a4:	4b02      	ldr	r3, [pc, #8]	; (80a25b0 <_GLOBAL__sub_I__ZN5spark7NetworkE+0xc>)
 80a25a6:	4a03      	ldr	r2, [pc, #12]	; (80a25b4 <_GLOBAL__sub_I__ZN5spark7NetworkE+0x10>)
 80a25a8:	601a      	str	r2, [r3, #0]
 80a25aa:	2200      	movs	r2, #0
 80a25ac:	605a      	str	r2, [r3, #4]

} // spark
 80a25ae:	4770      	bx	lr
 80a25b0:	20000420 	.word	0x20000420
 80a25b4:	080a373c 	.word	0x080a373c

080a25b8 <__tcf_0>:
        dispose();
    }

    void dispose()
    {
        if (handle_) {
 80a25b8:	4b02      	ldr	r3, [pc, #8]	; (80a25c4 <__tcf_0+0xc>)
 80a25ba:	6898      	ldr	r0, [r3, #8]
 80a25bc:	b108      	cbz	r0, 80a25c2 <__tcf_0+0xa>
            os_mutex_recursive_destroy(handle_);
 80a25be:	f7ff b9a7 	b.w	80a1910 <os_mutex_recursive_destroy>

template <hal_spi_interface_t Interface>
class SpiProxy {
public:
    static SPIClass& instance() {
        static SPIClass instance(Interface);
 80a25c2:	4770      	bx	lr
 80a25c4:	2000042c 	.word	0x2000042c

080a25c8 <pinAvailable>:
/*
 * @brief Perform safety check on desired pin to see if it's already
 * being used.  Return 0 if used, otherwise return 1 if available.
 */
bool pinAvailable(uint16_t pin) {
  if (pin >= TOTAL_PINS) {
 80a25c8:	2817      	cmp	r0, #23
bool pinAvailable(uint16_t pin) {
 80a25ca:	b570      	push	{r4, r5, r6, lr}
 80a25cc:	4604      	mov	r4, r0
  if (pin >= TOTAL_PINS) {
 80a25ce:	d901      	bls.n	80a25d4 <pinAvailable+0xc>
    return false;
 80a25d0:	2000      	movs	r0, #0
    return false; // 'pin' is used
  }
#endif

  return true; // 'pin' is available
}
 80a25d2:	bd70      	pop	{r4, r5, r6, pc}
  if((pin == SCK || pin == MOSI || pin == MISO) && hal_spi_is_enabled(SPI.interface()) == true)
 80a25d4:	f1a0 030d 	sub.w	r3, r0, #13
 80a25d8:	2b02      	cmp	r3, #2
 80a25da:	d90b      	bls.n	80a25f4 <pinAvailable+0x2c>
  if((pin == SCL || pin == SDA) && hal_i2c_is_enabled(Wire.interface(), nullptr) == true)
 80a25dc:	2801      	cmp	r0, #1
 80a25de:	d824      	bhi.n	80a262a <pinAvailable+0x62>
 80a25e0:	f000 f8ee 	bl	80a27c0 <_Z19__fetch_global_Wirev>
 80a25e4:	2100      	movs	r1, #0
 80a25e6:	7c00      	ldrb	r0, [r0, #16]
 80a25e8:	f7ff fa1a 	bl	80a1a20 <hal_i2c_is_enabled>
  if((pin == RX || pin == TX) && hal_usart_is_enabled(Serial1.interface()) == true)
 80a25ec:	f080 0001 	eor.w	r0, r0, #1
 80a25f0:	b2c0      	uxtb	r0, r0
 80a25f2:	e7ee      	b.n	80a25d2 <pinAvailable+0xa>
 80a25f4:	4e12      	ldr	r6, [pc, #72]	; (80a2640 <pinAvailable+0x78>)
 80a25f6:	7831      	ldrb	r1, [r6, #0]
 80a25f8:	f3bf 8f5b 	dmb	ish
 80a25fc:	f011 0501 	ands.w	r5, r1, #1
 80a2600:	d10d      	bne.n	80a261e <pinAvailable+0x56>
 80a2602:	4630      	mov	r0, r6
 80a2604:	f7fd fd4d 	bl	80a00a2 <__cxa_guard_acquire>
 80a2608:	b148      	cbz	r0, 80a261e <pinAvailable+0x56>
 80a260a:	4629      	mov	r1, r5
 80a260c:	480d      	ldr	r0, [pc, #52]	; (80a2644 <pinAvailable+0x7c>)
 80a260e:	f7ff fb15 	bl	80a1c3c <_ZN8SPIClassC1E19hal_spi_interface_t>
 80a2612:	4630      	mov	r0, r6
 80a2614:	f7fd fd4a 	bl	80a00ac <__cxa_guard_release>
 80a2618:	480b      	ldr	r0, [pc, #44]	; (80a2648 <pinAvailable+0x80>)
 80a261a:	f000 ff09 	bl	80a3430 <atexit>
  if((pin == SCK || pin == MOSI || pin == MISO) && hal_spi_is_enabled(SPI.interface()) == true)
 80a261e:	4b09      	ldr	r3, [pc, #36]	; (80a2644 <pinAvailable+0x7c>)
 80a2620:	7818      	ldrb	r0, [r3, #0]
 80a2622:	f7ff fa17 	bl	80a1a54 <hal_spi_is_enabled>
 80a2626:	2800      	cmp	r0, #0
 80a2628:	d1d2      	bne.n	80a25d0 <pinAvailable+0x8>
  if((pin == RX || pin == TX) && hal_usart_is_enabled(Serial1.interface()) == true)
 80a262a:	3c12      	subs	r4, #18
 80a262c:	2c01      	cmp	r4, #1
 80a262e:	d805      	bhi.n	80a263c <pinAvailable+0x74>
 80a2630:	f000 f87c 	bl	80a272c <_Z22__fetch_global_Serial1v>
 80a2634:	7c00      	ldrb	r0, [r0, #16]
 80a2636:	f7ff f99b 	bl	80a1970 <hal_usart_is_enabled>
 80a263a:	e7d7      	b.n	80a25ec <pinAvailable+0x24>
  return true; // 'pin' is available
 80a263c:	2001      	movs	r0, #1
 80a263e:	e7c8      	b.n	80a25d2 <pinAvailable+0xa>
 80a2640:	20000428 	.word	0x20000428
 80a2644:	2000042c 	.word	0x2000042c
 80a2648:	080a25b9 	.word	0x080a25b9

080a264c <pinMode>:
  if(pin >= TOTAL_PINS || setMode == PIN_MODE_NONE )
 80a264c:	2817      	cmp	r0, #23
{
 80a264e:	b538      	push	{r3, r4, r5, lr}
 80a2650:	4604      	mov	r4, r0
 80a2652:	460d      	mov	r5, r1
  if(pin >= TOTAL_PINS || setMode == PIN_MODE_NONE )
 80a2654:	d80a      	bhi.n	80a266c <pinMode+0x20>
 80a2656:	29ff      	cmp	r1, #255	; 0xff
 80a2658:	d008      	beq.n	80a266c <pinMode+0x20>
  if( !pinAvailable(pin) ) {
 80a265a:	f7ff ffb5 	bl	80a25c8 <pinAvailable>
 80a265e:	b128      	cbz	r0, 80a266c <pinMode+0x20>
  HAL_Pin_Mode(pin, setMode);
 80a2660:	4629      	mov	r1, r5
 80a2662:	4620      	mov	r0, r4
}
 80a2664:	e8bd 4038 	ldmia.w	sp!, {r3, r4, r5, lr}
  HAL_Pin_Mode(pin, setMode);
 80a2668:	f7ff b902 	b.w	80a1870 <HAL_Pin_Mode>
}
 80a266c:	bd38      	pop	{r3, r4, r5, pc}

080a266e <digitalWrite>:

/*
 * @brief Sets a GPIO pin to HIGH or LOW.
 */
void digitalWrite(pin_t pin, uint8_t value)
{
 80a266e:	b538      	push	{r3, r4, r5, lr}
 80a2670:	4604      	mov	r4, r0
 80a2672:	460d      	mov	r5, r1
    PinMode mode = HAL_Get_Pin_Mode(pin);
 80a2674:	f7ff f904 	bl	80a1880 <HAL_Get_Pin_Mode>
    if (mode==PIN_MODE_NONE || is_input_mode(mode))
 80a2678:	28ff      	cmp	r0, #255	; 0xff
 80a267a:	d010      	beq.n	80a269e <digitalWrite+0x30>
            mode == INPUT_PULLDOWN ||
 80a267c:	2806      	cmp	r0, #6
 80a267e:	d804      	bhi.n	80a268a <digitalWrite+0x1c>
 80a2680:	234d      	movs	r3, #77	; 0x4d
 80a2682:	fa23 f000 	lsr.w	r0, r3, r0
 80a2686:	07c3      	lsls	r3, r0, #31
 80a2688:	d409      	bmi.n	80a269e <digitalWrite+0x30>
        return;
  // Safety check
  if( !pinAvailable(pin) ) {
 80a268a:	4620      	mov	r0, r4
 80a268c:	f7ff ff9c 	bl	80a25c8 <pinAvailable>
 80a2690:	b128      	cbz	r0, 80a269e <digitalWrite+0x30>
    return;
  }

  HAL_GPIO_Write(pin, value);
 80a2692:	4629      	mov	r1, r5
 80a2694:	4620      	mov	r0, r4
}
 80a2696:	e8bd 4038 	ldmia.w	sp!, {r3, r4, r5, lr}
  HAL_GPIO_Write(pin, value);
 80a269a:	f7ff b8f9 	b.w	80a1890 <HAL_GPIO_Write>
}
 80a269e:	bd38      	pop	{r3, r4, r5, pc}

080a26a0 <digitalRead>:

/*
 * @brief Reads the value of a GPIO pin. Should return either 1 (HIGH) or 0 (LOW).
 */
int32_t digitalRead(pin_t pin)
{
 80a26a0:	b510      	push	{r4, lr}
 80a26a2:	4604      	mov	r4, r0
    PinMode mode = HAL_Get_Pin_Mode(pin);
 80a26a4:	f7ff f8ec 	bl	80a1880 <HAL_Get_Pin_Mode>
    return mode == AF_OUTPUT_PUSHPULL ||
 80a26a8:	1f03      	subs	r3, r0, #4
    if (is_af_output_mode(mode))
 80a26aa:	b2db      	uxtb	r3, r3
 80a26ac:	2b01      	cmp	r3, #1
 80a26ae:	d908      	bls.n	80a26c2 <digitalRead+0x22>
        return LOW;

    // Safety check
    if( !pinAvailable(pin) ) {
 80a26b0:	4620      	mov	r0, r4
 80a26b2:	f7ff ff89 	bl	80a25c8 <pinAvailable>
 80a26b6:	b120      	cbz	r0, 80a26c2 <digitalRead+0x22>
      return LOW;
    }

    return HAL_GPIO_Read(pin);
 80a26b8:	4620      	mov	r0, r4
}
 80a26ba:	e8bd 4010 	ldmia.w	sp!, {r4, lr}
    return HAL_GPIO_Read(pin);
 80a26be:	f7ff b8ef 	b.w	80a18a0 <HAL_GPIO_Read>
}
 80a26c2:	2000      	movs	r0, #0
 80a26c4:	bd10      	pop	{r4, pc}

080a26c6 <analogRead>:
 * @brief Read the analog value of a pin.
 * Should return a 16-bit value, 0-65536 (0 = LOW, 65536 = HIGH)
 * Note: ADC is 12-bit. Currently it returns 0-4095
 */
int32_t analogRead(pin_t pin)
{
 80a26c6:	b510      	push	{r4, lr}
 80a26c8:	4604      	mov	r4, r0
  // Allow people to use 0-7 to define analog pins by checking to see if the values are too low.
#if defined(FIRST_ANALOG_PIN) && FIRST_ANALOG_PIN > 0
  if(pin < FIRST_ANALOG_PIN)
 80a26ca:	2809      	cmp	r0, #9
  {
    pin = pin + FIRST_ANALOG_PIN;
 80a26cc:	bf9c      	itt	ls
 80a26ce:	340a      	addls	r4, #10
 80a26d0:	b2a4      	uxthls	r4, r4
  }
#endif // defined(FIRST_ANALOG_PIN) && FIRST_ANALOG_PIN > 0

  // Safety check
  if( !pinAvailable(pin) ) {
 80a26d2:	4620      	mov	r0, r4
 80a26d4:	f7ff ff78 	bl	80a25c8 <pinAvailable>
 80a26d8:	b150      	cbz	r0, 80a26f0 <analogRead+0x2a>
    return LOW;
  }

  if(HAL_Validate_Pin_Function(pin, PF_ADC)!=PF_ADC)
 80a26da:	2103      	movs	r1, #3
 80a26dc:	4620      	mov	r0, r4
 80a26de:	f7ff f8bf 	bl	80a1860 <HAL_Validate_Pin_Function>
 80a26e2:	2803      	cmp	r0, #3
 80a26e4:	d104      	bne.n	80a26f0 <analogRead+0x2a>
  {
    return LOW;
  }

  return hal_adc_read(pin);
 80a26e6:	4620      	mov	r0, r4
}
 80a26e8:	e8bd 4010 	ldmia.w	sp!, {r4, lr}
  return hal_adc_read(pin);
 80a26ec:	f7ff b8e0 	b.w	80a18b0 <hal_adc_read>
}
 80a26f0:	2000      	movs	r0, #0
 80a26f2:	bd10      	pop	{r4, pc}

080a26f4 <__tcf_0>:
}
#endif

USARTSerial& __fetch_global_Serial1()
{
    static USARTSerial serial1(HAL_USART_SERIAL1, acquireSerial1Buffer());
 80a26f4:	4770      	bx	lr
	...

080a26f8 <_Z20acquireSerial1Bufferv>:
{
 80a26f8:	b570      	push	{r4, r5, r6, lr}
    hal_usart_buffer_config_t config = {
 80a26fa:	2514      	movs	r5, #20
{
 80a26fc:	4604      	mov	r4, r0
    hal_usart_buffer_config_t config = {
 80a26fe:	462a      	mov	r2, r5
 80a2700:	2100      	movs	r1, #0
 80a2702:	f000 fea9 	bl	80a3458 <memset>
 80a2706:	8025      	strh	r5, [r4, #0]
 80a2708:	2580      	movs	r5, #128	; 0x80
        .rx_buffer = new (std::nothrow) uint8_t[bufferSize],
 80a270a:	4e07      	ldr	r6, [pc, #28]	; (80a2728 <_Z20acquireSerial1Bufferv+0x30>)
 80a270c:	4628      	mov	r0, r5
 80a270e:	4631      	mov	r1, r6
    hal_usart_buffer_config_t config = {
 80a2710:	8125      	strh	r5, [r4, #8]
 80a2712:	8225      	strh	r5, [r4, #16]
        .rx_buffer = new (std::nothrow) uint8_t[bufferSize],
 80a2714:	f000 f878 	bl	80a2808 <_ZnajRKSt9nothrow_t>
        .tx_buffer = new (std::nothrow) uint8_t[bufferSize],
 80a2718:	4631      	mov	r1, r6
    };
 80a271a:	6060      	str	r0, [r4, #4]
        .tx_buffer = new (std::nothrow) uint8_t[bufferSize],
 80a271c:	4628      	mov	r0, r5
 80a271e:	f000 f873 	bl	80a2808 <_ZnajRKSt9nothrow_t>
    };
 80a2722:	60e0      	str	r0, [r4, #12]
}
 80a2724:	4620      	mov	r0, r4
 80a2726:	bd70      	pop	{r4, r5, r6, pc}
 80a2728:	080a3770 	.word	0x080a3770

080a272c <_Z22__fetch_global_Serial1v>:
{
 80a272c:	b530      	push	{r4, r5, lr}
    static USARTSerial serial1(HAL_USART_SERIAL1, acquireSerial1Buffer());
 80a272e:	4d0e      	ldr	r5, [pc, #56]	; (80a2768 <_Z22__fetch_global_Serial1v+0x3c>)
{
 80a2730:	b087      	sub	sp, #28
    static USARTSerial serial1(HAL_USART_SERIAL1, acquireSerial1Buffer());
 80a2732:	7829      	ldrb	r1, [r5, #0]
 80a2734:	f3bf 8f5b 	dmb	ish
 80a2738:	f011 0401 	ands.w	r4, r1, #1
 80a273c:	d111      	bne.n	80a2762 <_Z22__fetch_global_Serial1v+0x36>
 80a273e:	4628      	mov	r0, r5
 80a2740:	f7fd fcaf 	bl	80a00a2 <__cxa_guard_acquire>
 80a2744:	b168      	cbz	r0, 80a2762 <_Z22__fetch_global_Serial1v+0x36>
 80a2746:	a801      	add	r0, sp, #4
 80a2748:	f7ff ffd6 	bl	80a26f8 <_Z20acquireSerial1Bufferv>
 80a274c:	4621      	mov	r1, r4
 80a274e:	aa01      	add	r2, sp, #4
 80a2750:	4806      	ldr	r0, [pc, #24]	; (80a276c <_Z22__fetch_global_Serial1v+0x40>)
 80a2752:	f7ff fdfd 	bl	80a2350 <_ZN11USARTSerialC1E21hal_usart_interface_tRK25hal_usart_buffer_config_t>
 80a2756:	4628      	mov	r0, r5
 80a2758:	f7fd fca8 	bl	80a00ac <__cxa_guard_release>
 80a275c:	4804      	ldr	r0, [pc, #16]	; (80a2770 <_Z22__fetch_global_Serial1v+0x44>)
 80a275e:	f000 fe67 	bl	80a3430 <atexit>
    return serial1;
}
 80a2762:	4802      	ldr	r0, [pc, #8]	; (80a276c <_Z22__fetch_global_Serial1v+0x40>)
 80a2764:	b007      	add	sp, #28
 80a2766:	bd30      	pop	{r4, r5, pc}
 80a2768:	20000438 	.word	0x20000438
 80a276c:	2000043c 	.word	0x2000043c
 80a2770:	080a26f5 	.word	0x080a26f5

080a2774 <_GLOBAL__sub_I_INADDR_NONE>:
#include "spark_wiring_ipaddress.h"

#if !HAL_USE_SOCKET_HAL_POSIX
const IPAddress INADDR_NONE(0, 0, 0, 0);
 80a2774:	2300      	movs	r3, #0
 80a2776:	b507      	push	{r0, r1, r2, lr}
 80a2778:	461a      	mov	r2, r3
 80a277a:	4619      	mov	r1, r3
 80a277c:	9300      	str	r3, [sp, #0]
 80a277e:	4803      	ldr	r0, [pc, #12]	; (80a278c <_GLOBAL__sub_I_INADDR_NONE+0x18>)
 80a2780:	f7ff fcd4 	bl	80a212c <_ZN9IPAddressC1Ehhhh>
 80a2784:	b003      	add	sp, #12
 80a2786:	f85d fb04 	ldr.w	pc, [sp], #4
 80a278a:	bf00      	nop
 80a278c:	20000454 	.word	0x20000454

080a2790 <__tcf_0>:
}
#endif

TwoWire& __fetch_global_Wire()
{
	static TwoWire wire(HAL_I2C_INTERFACE1, acquireWireBuffer());
 80a2790:	4770      	bx	lr
	...

080a2794 <_Z17acquireWireBufferv>:
{
 80a2794:	b570      	push	{r4, r5, r6, lr}
	hal_i2c_config_t config = {
 80a2796:	2314      	movs	r3, #20
 80a2798:	2520      	movs	r5, #32
		.rx_buffer = new (std::nothrow) uint8_t[I2C_BUFFER_LENGTH],
 80a279a:	4e08      	ldr	r6, [pc, #32]	; (80a27bc <_Z17acquireWireBufferv+0x28>)
{
 80a279c:	4604      	mov	r4, r0
	hal_i2c_config_t config = {
 80a279e:	6003      	str	r3, [r0, #0]
		.rx_buffer = new (std::nothrow) uint8_t[I2C_BUFFER_LENGTH],
 80a27a0:	4631      	mov	r1, r6
	hal_i2c_config_t config = {
 80a27a2:	6085      	str	r5, [r0, #8]
 80a27a4:	6105      	str	r5, [r0, #16]
		.rx_buffer = new (std::nothrow) uint8_t[I2C_BUFFER_LENGTH],
 80a27a6:	4628      	mov	r0, r5
 80a27a8:	f000 f82e 	bl	80a2808 <_ZnajRKSt9nothrow_t>
		.tx_buffer = new (std::nothrow) uint8_t[I2C_BUFFER_LENGTH],
 80a27ac:	4631      	mov	r1, r6
	};
 80a27ae:	6060      	str	r0, [r4, #4]
		.tx_buffer = new (std::nothrow) uint8_t[I2C_BUFFER_LENGTH],
 80a27b0:	4628      	mov	r0, r5
 80a27b2:	f000 f829 	bl	80a2808 <_ZnajRKSt9nothrow_t>
	};
 80a27b6:	60e0      	str	r0, [r4, #12]
}
 80a27b8:	4620      	mov	r0, r4
 80a27ba:	bd70      	pop	{r4, r5, r6, pc}
 80a27bc:	080a3770 	.word	0x080a3770

080a27c0 <_Z19__fetch_global_Wirev>:
{
 80a27c0:	b530      	push	{r4, r5, lr}
	static TwoWire wire(HAL_I2C_INTERFACE1, acquireWireBuffer());
 80a27c2:	4d0e      	ldr	r5, [pc, #56]	; (80a27fc <_Z19__fetch_global_Wirev+0x3c>)
{
 80a27c4:	b087      	sub	sp, #28
	static TwoWire wire(HAL_I2C_INTERFACE1, acquireWireBuffer());
 80a27c6:	7829      	ldrb	r1, [r5, #0]
 80a27c8:	f3bf 8f5b 	dmb	ish
 80a27cc:	f011 0401 	ands.w	r4, r1, #1
 80a27d0:	d111      	bne.n	80a27f6 <_Z19__fetch_global_Wirev+0x36>
 80a27d2:	4628      	mov	r0, r5
 80a27d4:	f7fd fc65 	bl	80a00a2 <__cxa_guard_acquire>
 80a27d8:	b168      	cbz	r0, 80a27f6 <_Z19__fetch_global_Wirev+0x36>
 80a27da:	a801      	add	r0, sp, #4
 80a27dc:	f7ff ffda 	bl	80a2794 <_Z17acquireWireBufferv>
 80a27e0:	4621      	mov	r1, r4
 80a27e2:	aa01      	add	r2, sp, #4
 80a27e4:	4806      	ldr	r0, [pc, #24]	; (80a2800 <_Z19__fetch_global_Wirev+0x40>)
 80a27e6:	f7ff fdf3 	bl	80a23d0 <_ZN7TwoWireC1E19hal_i2c_interface_tRK16hal_i2c_config_t>
 80a27ea:	4628      	mov	r0, r5
 80a27ec:	f7fd fc5e 	bl	80a00ac <__cxa_guard_release>
 80a27f0:	4804      	ldr	r0, [pc, #16]	; (80a2804 <_Z19__fetch_global_Wirev+0x44>)
 80a27f2:	f000 fe1d 	bl	80a3430 <atexit>
	return wire;
}
 80a27f6:	4802      	ldr	r0, [pc, #8]	; (80a2800 <_Z19__fetch_global_Wirev+0x40>)
 80a27f8:	b007      	add	sp, #28
 80a27fa:	bd30      	pop	{r4, r5, pc}
 80a27fc:	2000046c 	.word	0x2000046c
 80a2800:	20000470 	.word	0x20000470
 80a2804:	080a2791 	.word	0x080a2791

080a2808 <_ZnajRKSt9nothrow_t>:
 80a2808:	f7fd bc47 	b.w	80a009a <_Znaj>

080a280c <__aeabi_drsub>:
 80a280c:	f081 4100 	eor.w	r1, r1, #2147483648	; 0x80000000
 80a2810:	e002      	b.n	80a2818 <__adddf3>
 80a2812:	bf00      	nop

080a2814 <__aeabi_dsub>:
 80a2814:	f083 4300 	eor.w	r3, r3, #2147483648	; 0x80000000

080a2818 <__adddf3>:
 80a2818:	b530      	push	{r4, r5, lr}
 80a281a:	ea4f 0441 	mov.w	r4, r1, lsl #1
 80a281e:	ea4f 0543 	mov.w	r5, r3, lsl #1
 80a2822:	ea94 0f05 	teq	r4, r5
 80a2826:	bf08      	it	eq
 80a2828:	ea90 0f02 	teqeq	r0, r2
 80a282c:	bf1f      	itttt	ne
 80a282e:	ea54 0c00 	orrsne.w	ip, r4, r0
 80a2832:	ea55 0c02 	orrsne.w	ip, r5, r2
 80a2836:	ea7f 5c64 	mvnsne.w	ip, r4, asr #21
 80a283a:	ea7f 5c65 	mvnsne.w	ip, r5, asr #21
 80a283e:	f000 80e2 	beq.w	80a2a06 <__adddf3+0x1ee>
 80a2842:	ea4f 5454 	mov.w	r4, r4, lsr #21
 80a2846:	ebd4 5555 	rsbs	r5, r4, r5, lsr #21
 80a284a:	bfb8      	it	lt
 80a284c:	426d      	neglt	r5, r5
 80a284e:	dd0c      	ble.n	80a286a <__adddf3+0x52>
 80a2850:	442c      	add	r4, r5
 80a2852:	ea80 0202 	eor.w	r2, r0, r2
 80a2856:	ea81 0303 	eor.w	r3, r1, r3
 80a285a:	ea82 0000 	eor.w	r0, r2, r0
 80a285e:	ea83 0101 	eor.w	r1, r3, r1
 80a2862:	ea80 0202 	eor.w	r2, r0, r2
 80a2866:	ea81 0303 	eor.w	r3, r1, r3
 80a286a:	2d36      	cmp	r5, #54	; 0x36
 80a286c:	bf88      	it	hi
 80a286e:	bd30      	pophi	{r4, r5, pc}
 80a2870:	f011 4f00 	tst.w	r1, #2147483648	; 0x80000000
 80a2874:	ea4f 3101 	mov.w	r1, r1, lsl #12
 80a2878:	f44f 1c80 	mov.w	ip, #1048576	; 0x100000
 80a287c:	ea4c 3111 	orr.w	r1, ip, r1, lsr #12
 80a2880:	d002      	beq.n	80a2888 <__adddf3+0x70>
 80a2882:	4240      	negs	r0, r0
 80a2884:	eb61 0141 	sbc.w	r1, r1, r1, lsl #1
 80a2888:	f013 4f00 	tst.w	r3, #2147483648	; 0x80000000
 80a288c:	ea4f 3303 	mov.w	r3, r3, lsl #12
 80a2890:	ea4c 3313 	orr.w	r3, ip, r3, lsr #12
 80a2894:	d002      	beq.n	80a289c <__adddf3+0x84>
 80a2896:	4252      	negs	r2, r2
 80a2898:	eb63 0343 	sbc.w	r3, r3, r3, lsl #1
 80a289c:	ea94 0f05 	teq	r4, r5
 80a28a0:	f000 80a7 	beq.w	80a29f2 <__adddf3+0x1da>
 80a28a4:	f1a4 0401 	sub.w	r4, r4, #1
 80a28a8:	f1d5 0e20 	rsbs	lr, r5, #32
 80a28ac:	db0d      	blt.n	80a28ca <__adddf3+0xb2>
 80a28ae:	fa02 fc0e 	lsl.w	ip, r2, lr
 80a28b2:	fa22 f205 	lsr.w	r2, r2, r5
 80a28b6:	1880      	adds	r0, r0, r2
 80a28b8:	f141 0100 	adc.w	r1, r1, #0
 80a28bc:	fa03 f20e 	lsl.w	r2, r3, lr
 80a28c0:	1880      	adds	r0, r0, r2
 80a28c2:	fa43 f305 	asr.w	r3, r3, r5
 80a28c6:	4159      	adcs	r1, r3
 80a28c8:	e00e      	b.n	80a28e8 <__adddf3+0xd0>
 80a28ca:	f1a5 0520 	sub.w	r5, r5, #32
 80a28ce:	f10e 0e20 	add.w	lr, lr, #32
 80a28d2:	2a01      	cmp	r2, #1
 80a28d4:	fa03 fc0e 	lsl.w	ip, r3, lr
 80a28d8:	bf28      	it	cs
 80a28da:	f04c 0c02 	orrcs.w	ip, ip, #2
 80a28de:	fa43 f305 	asr.w	r3, r3, r5
 80a28e2:	18c0      	adds	r0, r0, r3
 80a28e4:	eb51 71e3 	adcs.w	r1, r1, r3, asr #31
 80a28e8:	f001 4500 	and.w	r5, r1, #2147483648	; 0x80000000
 80a28ec:	d507      	bpl.n	80a28fe <__adddf3+0xe6>
 80a28ee:	f04f 0e00 	mov.w	lr, #0
 80a28f2:	f1dc 0c00 	rsbs	ip, ip, #0
 80a28f6:	eb7e 0000 	sbcs.w	r0, lr, r0
 80a28fa:	eb6e 0101 	sbc.w	r1, lr, r1
 80a28fe:	f5b1 1f80 	cmp.w	r1, #1048576	; 0x100000
 80a2902:	d31b      	bcc.n	80a293c <__adddf3+0x124>
 80a2904:	f5b1 1f00 	cmp.w	r1, #2097152	; 0x200000
 80a2908:	d30c      	bcc.n	80a2924 <__adddf3+0x10c>
 80a290a:	0849      	lsrs	r1, r1, #1
 80a290c:	ea5f 0030 	movs.w	r0, r0, rrx
 80a2910:	ea4f 0c3c 	mov.w	ip, ip, rrx
 80a2914:	f104 0401 	add.w	r4, r4, #1
 80a2918:	ea4f 5244 	mov.w	r2, r4, lsl #21
 80a291c:	f512 0f80 	cmn.w	r2, #4194304	; 0x400000
 80a2920:	f080 809a 	bcs.w	80a2a58 <__adddf3+0x240>
 80a2924:	f1bc 4f00 	cmp.w	ip, #2147483648	; 0x80000000
 80a2928:	bf08      	it	eq
 80a292a:	ea5f 0c50 	movseq.w	ip, r0, lsr #1
 80a292e:	f150 0000 	adcs.w	r0, r0, #0
 80a2932:	eb41 5104 	adc.w	r1, r1, r4, lsl #20
 80a2936:	ea41 0105 	orr.w	r1, r1, r5
 80a293a:	bd30      	pop	{r4, r5, pc}
 80a293c:	ea5f 0c4c 	movs.w	ip, ip, lsl #1
 80a2940:	4140      	adcs	r0, r0
 80a2942:	eb41 0101 	adc.w	r1, r1, r1
 80a2946:	3c01      	subs	r4, #1
 80a2948:	bf28      	it	cs
 80a294a:	f5b1 1f80 	cmpcs.w	r1, #1048576	; 0x100000
 80a294e:	d2e9      	bcs.n	80a2924 <__adddf3+0x10c>
 80a2950:	f091 0f00 	teq	r1, #0
 80a2954:	bf04      	itt	eq
 80a2956:	4601      	moveq	r1, r0
 80a2958:	2000      	moveq	r0, #0
 80a295a:	fab1 f381 	clz	r3, r1
 80a295e:	bf08      	it	eq
 80a2960:	3320      	addeq	r3, #32
 80a2962:	f1a3 030b 	sub.w	r3, r3, #11
 80a2966:	f1b3 0220 	subs.w	r2, r3, #32
 80a296a:	da0c      	bge.n	80a2986 <__adddf3+0x16e>
 80a296c:	320c      	adds	r2, #12
 80a296e:	dd08      	ble.n	80a2982 <__adddf3+0x16a>
 80a2970:	f102 0c14 	add.w	ip, r2, #20
 80a2974:	f1c2 020c 	rsb	r2, r2, #12
 80a2978:	fa01 f00c 	lsl.w	r0, r1, ip
 80a297c:	fa21 f102 	lsr.w	r1, r1, r2
 80a2980:	e00c      	b.n	80a299c <__adddf3+0x184>
 80a2982:	f102 0214 	add.w	r2, r2, #20
 80a2986:	bfd8      	it	le
 80a2988:	f1c2 0c20 	rsble	ip, r2, #32
 80a298c:	fa01 f102 	lsl.w	r1, r1, r2
 80a2990:	fa20 fc0c 	lsr.w	ip, r0, ip
 80a2994:	bfdc      	itt	le
 80a2996:	ea41 010c 	orrle.w	r1, r1, ip
 80a299a:	4090      	lslle	r0, r2
 80a299c:	1ae4      	subs	r4, r4, r3
 80a299e:	bfa2      	ittt	ge
 80a29a0:	eb01 5104 	addge.w	r1, r1, r4, lsl #20
 80a29a4:	4329      	orrge	r1, r5
 80a29a6:	bd30      	popge	{r4, r5, pc}
 80a29a8:	ea6f 0404 	mvn.w	r4, r4
 80a29ac:	3c1f      	subs	r4, #31
 80a29ae:	da1c      	bge.n	80a29ea <__adddf3+0x1d2>
 80a29b0:	340c      	adds	r4, #12
 80a29b2:	dc0e      	bgt.n	80a29d2 <__adddf3+0x1ba>
 80a29b4:	f104 0414 	add.w	r4, r4, #20
 80a29b8:	f1c4 0220 	rsb	r2, r4, #32
 80a29bc:	fa20 f004 	lsr.w	r0, r0, r4
 80a29c0:	fa01 f302 	lsl.w	r3, r1, r2
 80a29c4:	ea40 0003 	orr.w	r0, r0, r3
 80a29c8:	fa21 f304 	lsr.w	r3, r1, r4
 80a29cc:	ea45 0103 	orr.w	r1, r5, r3
 80a29d0:	bd30      	pop	{r4, r5, pc}
 80a29d2:	f1c4 040c 	rsb	r4, r4, #12
 80a29d6:	f1c4 0220 	rsb	r2, r4, #32
 80a29da:	fa20 f002 	lsr.w	r0, r0, r2
 80a29de:	fa01 f304 	lsl.w	r3, r1, r4
 80a29e2:	ea40 0003 	orr.w	r0, r0, r3
 80a29e6:	4629      	mov	r1, r5
 80a29e8:	bd30      	pop	{r4, r5, pc}
 80a29ea:	fa21 f004 	lsr.w	r0, r1, r4
 80a29ee:	4629      	mov	r1, r5
 80a29f0:	bd30      	pop	{r4, r5, pc}
 80a29f2:	f094 0f00 	teq	r4, #0
 80a29f6:	f483 1380 	eor.w	r3, r3, #1048576	; 0x100000
 80a29fa:	bf06      	itte	eq
 80a29fc:	f481 1180 	eoreq.w	r1, r1, #1048576	; 0x100000
 80a2a00:	3401      	addeq	r4, #1
 80a2a02:	3d01      	subne	r5, #1
 80a2a04:	e74e      	b.n	80a28a4 <__adddf3+0x8c>
 80a2a06:	ea7f 5c64 	mvns.w	ip, r4, asr #21
 80a2a0a:	bf18      	it	ne
 80a2a0c:	ea7f 5c65 	mvnsne.w	ip, r5, asr #21
 80a2a10:	d029      	beq.n	80a2a66 <__adddf3+0x24e>
 80a2a12:	ea94 0f05 	teq	r4, r5
 80a2a16:	bf08      	it	eq
 80a2a18:	ea90 0f02 	teqeq	r0, r2
 80a2a1c:	d005      	beq.n	80a2a2a <__adddf3+0x212>
 80a2a1e:	ea54 0c00 	orrs.w	ip, r4, r0
 80a2a22:	bf04      	itt	eq
 80a2a24:	4619      	moveq	r1, r3
 80a2a26:	4610      	moveq	r0, r2
 80a2a28:	bd30      	pop	{r4, r5, pc}
 80a2a2a:	ea91 0f03 	teq	r1, r3
 80a2a2e:	bf1e      	ittt	ne
 80a2a30:	2100      	movne	r1, #0
 80a2a32:	2000      	movne	r0, #0
 80a2a34:	bd30      	popne	{r4, r5, pc}
 80a2a36:	ea5f 5c54 	movs.w	ip, r4, lsr #21
 80a2a3a:	d105      	bne.n	80a2a48 <__adddf3+0x230>
 80a2a3c:	0040      	lsls	r0, r0, #1
 80a2a3e:	4149      	adcs	r1, r1
 80a2a40:	bf28      	it	cs
 80a2a42:	f041 4100 	orrcs.w	r1, r1, #2147483648	; 0x80000000
 80a2a46:	bd30      	pop	{r4, r5, pc}
 80a2a48:	f514 0480 	adds.w	r4, r4, #4194304	; 0x400000
 80a2a4c:	bf3c      	itt	cc
 80a2a4e:	f501 1180 	addcc.w	r1, r1, #1048576	; 0x100000
 80a2a52:	bd30      	popcc	{r4, r5, pc}
 80a2a54:	f001 4500 	and.w	r5, r1, #2147483648	; 0x80000000
 80a2a58:	f045 41fe 	orr.w	r1, r5, #2130706432	; 0x7f000000
 80a2a5c:	f441 0170 	orr.w	r1, r1, #15728640	; 0xf00000
 80a2a60:	f04f 0000 	mov.w	r0, #0
 80a2a64:	bd30      	pop	{r4, r5, pc}
 80a2a66:	ea7f 5c64 	mvns.w	ip, r4, asr #21
 80a2a6a:	bf1a      	itte	ne
 80a2a6c:	4619      	movne	r1, r3
 80a2a6e:	4610      	movne	r0, r2
 80a2a70:	ea7f 5c65 	mvnseq.w	ip, r5, asr #21
 80a2a74:	bf1c      	itt	ne
 80a2a76:	460b      	movne	r3, r1
 80a2a78:	4602      	movne	r2, r0
 80a2a7a:	ea50 3401 	orrs.w	r4, r0, r1, lsl #12
 80a2a7e:	bf06      	itte	eq
 80a2a80:	ea52 3503 	orrseq.w	r5, r2, r3, lsl #12
 80a2a84:	ea91 0f03 	teqeq	r1, r3
 80a2a88:	f441 2100 	orrne.w	r1, r1, #524288	; 0x80000
 80a2a8c:	bd30      	pop	{r4, r5, pc}
 80a2a8e:	bf00      	nop

080a2a90 <__aeabi_ui2d>:
 80a2a90:	f090 0f00 	teq	r0, #0
 80a2a94:	bf04      	itt	eq
 80a2a96:	2100      	moveq	r1, #0
 80a2a98:	4770      	bxeq	lr
 80a2a9a:	b530      	push	{r4, r5, lr}
 80a2a9c:	f44f 6480 	mov.w	r4, #1024	; 0x400
 80a2aa0:	f104 0432 	add.w	r4, r4, #50	; 0x32
 80a2aa4:	f04f 0500 	mov.w	r5, #0
 80a2aa8:	f04f 0100 	mov.w	r1, #0
 80a2aac:	e750      	b.n	80a2950 <__adddf3+0x138>
 80a2aae:	bf00      	nop

080a2ab0 <__aeabi_i2d>:
 80a2ab0:	f090 0f00 	teq	r0, #0
 80a2ab4:	bf04      	itt	eq
 80a2ab6:	2100      	moveq	r1, #0
 80a2ab8:	4770      	bxeq	lr
 80a2aba:	b530      	push	{r4, r5, lr}
 80a2abc:	f44f 6480 	mov.w	r4, #1024	; 0x400
 80a2ac0:	f104 0432 	add.w	r4, r4, #50	; 0x32
 80a2ac4:	f010 4500 	ands.w	r5, r0, #2147483648	; 0x80000000
 80a2ac8:	bf48      	it	mi
 80a2aca:	4240      	negmi	r0, r0
 80a2acc:	f04f 0100 	mov.w	r1, #0
 80a2ad0:	e73e      	b.n	80a2950 <__adddf3+0x138>
 80a2ad2:	bf00      	nop

080a2ad4 <__aeabi_f2d>:
 80a2ad4:	0042      	lsls	r2, r0, #1
 80a2ad6:	ea4f 01e2 	mov.w	r1, r2, asr #3
 80a2ada:	ea4f 0131 	mov.w	r1, r1, rrx
 80a2ade:	ea4f 7002 	mov.w	r0, r2, lsl #28
 80a2ae2:	bf1f      	itttt	ne
 80a2ae4:	f012 437f 	andsne.w	r3, r2, #4278190080	; 0xff000000
 80a2ae8:	f093 4f7f 	teqne	r3, #4278190080	; 0xff000000
 80a2aec:	f081 5160 	eorne.w	r1, r1, #939524096	; 0x38000000
 80a2af0:	4770      	bxne	lr
 80a2af2:	f032 427f 	bics.w	r2, r2, #4278190080	; 0xff000000
 80a2af6:	bf08      	it	eq
 80a2af8:	4770      	bxeq	lr
 80a2afa:	f093 4f7f 	teq	r3, #4278190080	; 0xff000000
 80a2afe:	bf04      	itt	eq
 80a2b00:	f441 2100 	orreq.w	r1, r1, #524288	; 0x80000
 80a2b04:	4770      	bxeq	lr
 80a2b06:	b530      	push	{r4, r5, lr}
 80a2b08:	f44f 7460 	mov.w	r4, #896	; 0x380
 80a2b0c:	f001 4500 	and.w	r5, r1, #2147483648	; 0x80000000
 80a2b10:	f021 4100 	bic.w	r1, r1, #2147483648	; 0x80000000
 80a2b14:	e71c      	b.n	80a2950 <__adddf3+0x138>
 80a2b16:	bf00      	nop

080a2b18 <__aeabi_ul2d>:
 80a2b18:	ea50 0201 	orrs.w	r2, r0, r1
 80a2b1c:	bf08      	it	eq
 80a2b1e:	4770      	bxeq	lr
 80a2b20:	b530      	push	{r4, r5, lr}
 80a2b22:	f04f 0500 	mov.w	r5, #0
 80a2b26:	e00a      	b.n	80a2b3e <__aeabi_l2d+0x16>

080a2b28 <__aeabi_l2d>:
 80a2b28:	ea50 0201 	orrs.w	r2, r0, r1
 80a2b2c:	bf08      	it	eq
 80a2b2e:	4770      	bxeq	lr
 80a2b30:	b530      	push	{r4, r5, lr}
 80a2b32:	f011 4500 	ands.w	r5, r1, #2147483648	; 0x80000000
 80a2b36:	d502      	bpl.n	80a2b3e <__aeabi_l2d+0x16>
 80a2b38:	4240      	negs	r0, r0
 80a2b3a:	eb61 0141 	sbc.w	r1, r1, r1, lsl #1
 80a2b3e:	f44f 6480 	mov.w	r4, #1024	; 0x400
 80a2b42:	f104 0432 	add.w	r4, r4, #50	; 0x32
 80a2b46:	ea5f 5c91 	movs.w	ip, r1, lsr #22
 80a2b4a:	f43f aed8 	beq.w	80a28fe <__adddf3+0xe6>
 80a2b4e:	f04f 0203 	mov.w	r2, #3
 80a2b52:	ea5f 0cdc 	movs.w	ip, ip, lsr #3
 80a2b56:	bf18      	it	ne
 80a2b58:	3203      	addne	r2, #3
 80a2b5a:	ea5f 0cdc 	movs.w	ip, ip, lsr #3
 80a2b5e:	bf18      	it	ne
 80a2b60:	3203      	addne	r2, #3
 80a2b62:	eb02 02dc 	add.w	r2, r2, ip, lsr #3
 80a2b66:	f1c2 0320 	rsb	r3, r2, #32
 80a2b6a:	fa00 fc03 	lsl.w	ip, r0, r3
 80a2b6e:	fa20 f002 	lsr.w	r0, r0, r2
 80a2b72:	fa01 fe03 	lsl.w	lr, r1, r3
 80a2b76:	ea40 000e 	orr.w	r0, r0, lr
 80a2b7a:	fa21 f102 	lsr.w	r1, r1, r2
 80a2b7e:	4414      	add	r4, r2
 80a2b80:	e6bd      	b.n	80a28fe <__adddf3+0xe6>
 80a2b82:	bf00      	nop

080a2b84 <__aeabi_dmul>:
 80a2b84:	b570      	push	{r4, r5, r6, lr}
 80a2b86:	f04f 0cff 	mov.w	ip, #255	; 0xff
 80a2b8a:	f44c 6ce0 	orr.w	ip, ip, #1792	; 0x700
 80a2b8e:	ea1c 5411 	ands.w	r4, ip, r1, lsr #20
 80a2b92:	bf1d      	ittte	ne
 80a2b94:	ea1c 5513 	andsne.w	r5, ip, r3, lsr #20
 80a2b98:	ea94 0f0c 	teqne	r4, ip
 80a2b9c:	ea95 0f0c 	teqne	r5, ip
 80a2ba0:	f000 f8de 	bleq	80a2d60 <__aeabi_dmul+0x1dc>
 80a2ba4:	442c      	add	r4, r5
 80a2ba6:	ea81 0603 	eor.w	r6, r1, r3
 80a2baa:	ea21 514c 	bic.w	r1, r1, ip, lsl #21
 80a2bae:	ea23 534c 	bic.w	r3, r3, ip, lsl #21
 80a2bb2:	ea50 3501 	orrs.w	r5, r0, r1, lsl #12
 80a2bb6:	bf18      	it	ne
 80a2bb8:	ea52 3503 	orrsne.w	r5, r2, r3, lsl #12
 80a2bbc:	f441 1180 	orr.w	r1, r1, #1048576	; 0x100000
 80a2bc0:	f443 1380 	orr.w	r3, r3, #1048576	; 0x100000
 80a2bc4:	d038      	beq.n	80a2c38 <__aeabi_dmul+0xb4>
 80a2bc6:	fba0 ce02 	umull	ip, lr, r0, r2
 80a2bca:	f04f 0500 	mov.w	r5, #0
 80a2bce:	fbe1 e502 	umlal	lr, r5, r1, r2
 80a2bd2:	f006 4200 	and.w	r2, r6, #2147483648	; 0x80000000
 80a2bd6:	fbe0 e503 	umlal	lr, r5, r0, r3
 80a2bda:	f04f 0600 	mov.w	r6, #0
 80a2bde:	fbe1 5603 	umlal	r5, r6, r1, r3
 80a2be2:	f09c 0f00 	teq	ip, #0
 80a2be6:	bf18      	it	ne
 80a2be8:	f04e 0e01 	orrne.w	lr, lr, #1
 80a2bec:	f1a4 04ff 	sub.w	r4, r4, #255	; 0xff
 80a2bf0:	f5b6 7f00 	cmp.w	r6, #512	; 0x200
 80a2bf4:	f564 7440 	sbc.w	r4, r4, #768	; 0x300
 80a2bf8:	d204      	bcs.n	80a2c04 <__aeabi_dmul+0x80>
 80a2bfa:	ea5f 0e4e 	movs.w	lr, lr, lsl #1
 80a2bfe:	416d      	adcs	r5, r5
 80a2c00:	eb46 0606 	adc.w	r6, r6, r6
 80a2c04:	ea42 21c6 	orr.w	r1, r2, r6, lsl #11
 80a2c08:	ea41 5155 	orr.w	r1, r1, r5, lsr #21
 80a2c0c:	ea4f 20c5 	mov.w	r0, r5, lsl #11
 80a2c10:	ea40 505e 	orr.w	r0, r0, lr, lsr #21
 80a2c14:	ea4f 2ece 	mov.w	lr, lr, lsl #11
 80a2c18:	f1b4 0cfd 	subs.w	ip, r4, #253	; 0xfd
 80a2c1c:	bf88      	it	hi
 80a2c1e:	f5bc 6fe0 	cmphi.w	ip, #1792	; 0x700
 80a2c22:	d81e      	bhi.n	80a2c62 <__aeabi_dmul+0xde>
 80a2c24:	f1be 4f00 	cmp.w	lr, #2147483648	; 0x80000000
 80a2c28:	bf08      	it	eq
 80a2c2a:	ea5f 0e50 	movseq.w	lr, r0, lsr #1
 80a2c2e:	f150 0000 	adcs.w	r0, r0, #0
 80a2c32:	eb41 5104 	adc.w	r1, r1, r4, lsl #20
 80a2c36:	bd70      	pop	{r4, r5, r6, pc}
 80a2c38:	f006 4600 	and.w	r6, r6, #2147483648	; 0x80000000
 80a2c3c:	ea46 0101 	orr.w	r1, r6, r1
 80a2c40:	ea40 0002 	orr.w	r0, r0, r2
 80a2c44:	ea81 0103 	eor.w	r1, r1, r3
 80a2c48:	ebb4 045c 	subs.w	r4, r4, ip, lsr #1
 80a2c4c:	bfc2      	ittt	gt
 80a2c4e:	ebd4 050c 	rsbsgt	r5, r4, ip
 80a2c52:	ea41 5104 	orrgt.w	r1, r1, r4, lsl #20
 80a2c56:	bd70      	popgt	{r4, r5, r6, pc}
 80a2c58:	f441 1180 	orr.w	r1, r1, #1048576	; 0x100000
 80a2c5c:	f04f 0e00 	mov.w	lr, #0
 80a2c60:	3c01      	subs	r4, #1
 80a2c62:	f300 80ab 	bgt.w	80a2dbc <__aeabi_dmul+0x238>
 80a2c66:	f114 0f36 	cmn.w	r4, #54	; 0x36
 80a2c6a:	bfde      	ittt	le
 80a2c6c:	2000      	movle	r0, #0
 80a2c6e:	f001 4100 	andle.w	r1, r1, #2147483648	; 0x80000000
 80a2c72:	bd70      	pople	{r4, r5, r6, pc}
 80a2c74:	f1c4 0400 	rsb	r4, r4, #0
 80a2c78:	3c20      	subs	r4, #32
 80a2c7a:	da35      	bge.n	80a2ce8 <__aeabi_dmul+0x164>
 80a2c7c:	340c      	adds	r4, #12
 80a2c7e:	dc1b      	bgt.n	80a2cb8 <__aeabi_dmul+0x134>
 80a2c80:	f104 0414 	add.w	r4, r4, #20
 80a2c84:	f1c4 0520 	rsb	r5, r4, #32
 80a2c88:	fa00 f305 	lsl.w	r3, r0, r5
 80a2c8c:	fa20 f004 	lsr.w	r0, r0, r4
 80a2c90:	fa01 f205 	lsl.w	r2, r1, r5
 80a2c94:	ea40 0002 	orr.w	r0, r0, r2
 80a2c98:	f001 4200 	and.w	r2, r1, #2147483648	; 0x80000000
 80a2c9c:	f021 4100 	bic.w	r1, r1, #2147483648	; 0x80000000
 80a2ca0:	eb10 70d3 	adds.w	r0, r0, r3, lsr #31
 80a2ca4:	fa21 f604 	lsr.w	r6, r1, r4
 80a2ca8:	eb42 0106 	adc.w	r1, r2, r6
 80a2cac:	ea5e 0e43 	orrs.w	lr, lr, r3, lsl #1
 80a2cb0:	bf08      	it	eq
 80a2cb2:	ea20 70d3 	biceq.w	r0, r0, r3, lsr #31
 80a2cb6:	bd70      	pop	{r4, r5, r6, pc}
 80a2cb8:	f1c4 040c 	rsb	r4, r4, #12
 80a2cbc:	f1c4 0520 	rsb	r5, r4, #32
 80a2cc0:	fa00 f304 	lsl.w	r3, r0, r4
 80a2cc4:	fa20 f005 	lsr.w	r0, r0, r5
 80a2cc8:	fa01 f204 	lsl.w	r2, r1, r4
 80a2ccc:	ea40 0002 	orr.w	r0, r0, r2
 80a2cd0:	f001 4100 	and.w	r1, r1, #2147483648	; 0x80000000
 80a2cd4:	eb10 70d3 	adds.w	r0, r0, r3, lsr #31
 80a2cd8:	f141 0100 	adc.w	r1, r1, #0
 80a2cdc:	ea5e 0e43 	orrs.w	lr, lr, r3, lsl #1
 80a2ce0:	bf08      	it	eq
 80a2ce2:	ea20 70d3 	biceq.w	r0, r0, r3, lsr #31
 80a2ce6:	bd70      	pop	{r4, r5, r6, pc}
 80a2ce8:	f1c4 0520 	rsb	r5, r4, #32
 80a2cec:	fa00 f205 	lsl.w	r2, r0, r5
 80a2cf0:	ea4e 0e02 	orr.w	lr, lr, r2
 80a2cf4:	fa20 f304 	lsr.w	r3, r0, r4
 80a2cf8:	fa01 f205 	lsl.w	r2, r1, r5
 80a2cfc:	ea43 0302 	orr.w	r3, r3, r2
 80a2d00:	fa21 f004 	lsr.w	r0, r1, r4
 80a2d04:	f001 4100 	and.w	r1, r1, #2147483648	; 0x80000000
 80a2d08:	fa21 f204 	lsr.w	r2, r1, r4
 80a2d0c:	ea20 0002 	bic.w	r0, r0, r2
 80a2d10:	eb00 70d3 	add.w	r0, r0, r3, lsr #31
 80a2d14:	ea5e 0e43 	orrs.w	lr, lr, r3, lsl #1
 80a2d18:	bf08      	it	eq
 80a2d1a:	ea20 70d3 	biceq.w	r0, r0, r3, lsr #31
 80a2d1e:	bd70      	pop	{r4, r5, r6, pc}
 80a2d20:	f094 0f00 	teq	r4, #0
 80a2d24:	d10f      	bne.n	80a2d46 <__aeabi_dmul+0x1c2>
 80a2d26:	f001 4600 	and.w	r6, r1, #2147483648	; 0x80000000
 80a2d2a:	0040      	lsls	r0, r0, #1
 80a2d2c:	eb41 0101 	adc.w	r1, r1, r1
 80a2d30:	f411 1f80 	tst.w	r1, #1048576	; 0x100000
 80a2d34:	bf08      	it	eq
 80a2d36:	3c01      	subeq	r4, #1
 80a2d38:	d0f7      	beq.n	80a2d2a <__aeabi_dmul+0x1a6>
 80a2d3a:	ea41 0106 	orr.w	r1, r1, r6
 80a2d3e:	f095 0f00 	teq	r5, #0
 80a2d42:	bf18      	it	ne
 80a2d44:	4770      	bxne	lr
 80a2d46:	f003 4600 	and.w	r6, r3, #2147483648	; 0x80000000
 80a2d4a:	0052      	lsls	r2, r2, #1
 80a2d4c:	eb43 0303 	adc.w	r3, r3, r3
 80a2d50:	f413 1f80 	tst.w	r3, #1048576	; 0x100000
 80a2d54:	bf08      	it	eq
 80a2d56:	3d01      	subeq	r5, #1
 80a2d58:	d0f7      	beq.n	80a2d4a <__aeabi_dmul+0x1c6>
 80a2d5a:	ea43 0306 	orr.w	r3, r3, r6
 80a2d5e:	4770      	bx	lr
 80a2d60:	ea94 0f0c 	teq	r4, ip
 80a2d64:	ea0c 5513 	and.w	r5, ip, r3, lsr #20
 80a2d68:	bf18      	it	ne
 80a2d6a:	ea95 0f0c 	teqne	r5, ip
 80a2d6e:	d00c      	beq.n	80a2d8a <__aeabi_dmul+0x206>
 80a2d70:	ea50 0641 	orrs.w	r6, r0, r1, lsl #1
 80a2d74:	bf18      	it	ne
 80a2d76:	ea52 0643 	orrsne.w	r6, r2, r3, lsl #1
 80a2d7a:	d1d1      	bne.n	80a2d20 <__aeabi_dmul+0x19c>
 80a2d7c:	ea81 0103 	eor.w	r1, r1, r3
 80a2d80:	f001 4100 	and.w	r1, r1, #2147483648	; 0x80000000
 80a2d84:	f04f 0000 	mov.w	r0, #0
 80a2d88:	bd70      	pop	{r4, r5, r6, pc}
 80a2d8a:	ea50 0641 	orrs.w	r6, r0, r1, lsl #1
 80a2d8e:	bf06      	itte	eq
 80a2d90:	4610      	moveq	r0, r2
 80a2d92:	4619      	moveq	r1, r3
 80a2d94:	ea52 0643 	orrsne.w	r6, r2, r3, lsl #1
 80a2d98:	d019      	beq.n	80a2dce <__aeabi_dmul+0x24a>
 80a2d9a:	ea94 0f0c 	teq	r4, ip
 80a2d9e:	d102      	bne.n	80a2da6 <__aeabi_dmul+0x222>
 80a2da0:	ea50 3601 	orrs.w	r6, r0, r1, lsl #12
 80a2da4:	d113      	bne.n	80a2dce <__aeabi_dmul+0x24a>
 80a2da6:	ea95 0f0c 	teq	r5, ip
 80a2daa:	d105      	bne.n	80a2db8 <__aeabi_dmul+0x234>
 80a2dac:	ea52 3603 	orrs.w	r6, r2, r3, lsl #12
 80a2db0:	bf1c      	itt	ne
 80a2db2:	4610      	movne	r0, r2
 80a2db4:	4619      	movne	r1, r3
 80a2db6:	d10a      	bne.n	80a2dce <__aeabi_dmul+0x24a>
 80a2db8:	ea81 0103 	eor.w	r1, r1, r3
 80a2dbc:	f001 4100 	and.w	r1, r1, #2147483648	; 0x80000000
 80a2dc0:	f041 41fe 	orr.w	r1, r1, #2130706432	; 0x7f000000
 80a2dc4:	f441 0170 	orr.w	r1, r1, #15728640	; 0xf00000
 80a2dc8:	f04f 0000 	mov.w	r0, #0
 80a2dcc:	bd70      	pop	{r4, r5, r6, pc}
 80a2dce:	f041 41fe 	orr.w	r1, r1, #2130706432	; 0x7f000000
 80a2dd2:	f441 0178 	orr.w	r1, r1, #16252928	; 0xf80000
 80a2dd6:	bd70      	pop	{r4, r5, r6, pc}

080a2dd8 <__aeabi_ddiv>:
 80a2dd8:	b570      	push	{r4, r5, r6, lr}
 80a2dda:	f04f 0cff 	mov.w	ip, #255	; 0xff
 80a2dde:	f44c 6ce0 	orr.w	ip, ip, #1792	; 0x700
 80a2de2:	ea1c 5411 	ands.w	r4, ip, r1, lsr #20
 80a2de6:	bf1d      	ittte	ne
 80a2de8:	ea1c 5513 	andsne.w	r5, ip, r3, lsr #20
 80a2dec:	ea94 0f0c 	teqne	r4, ip
 80a2df0:	ea95 0f0c 	teqne	r5, ip
 80a2df4:	f000 f8a7 	bleq	80a2f46 <__aeabi_ddiv+0x16e>
 80a2df8:	eba4 0405 	sub.w	r4, r4, r5
 80a2dfc:	ea81 0e03 	eor.w	lr, r1, r3
 80a2e00:	ea52 3503 	orrs.w	r5, r2, r3, lsl #12
 80a2e04:	ea4f 3101 	mov.w	r1, r1, lsl #12
 80a2e08:	f000 8088 	beq.w	80a2f1c <__aeabi_ddiv+0x144>
 80a2e0c:	ea4f 3303 	mov.w	r3, r3, lsl #12
 80a2e10:	f04f 5580 	mov.w	r5, #268435456	; 0x10000000
 80a2e14:	ea45 1313 	orr.w	r3, r5, r3, lsr #4
 80a2e18:	ea43 6312 	orr.w	r3, r3, r2, lsr #24
 80a2e1c:	ea4f 2202 	mov.w	r2, r2, lsl #8
 80a2e20:	ea45 1511 	orr.w	r5, r5, r1, lsr #4
 80a2e24:	ea45 6510 	orr.w	r5, r5, r0, lsr #24
 80a2e28:	ea4f 2600 	mov.w	r6, r0, lsl #8
 80a2e2c:	f00e 4100 	and.w	r1, lr, #2147483648	; 0x80000000
 80a2e30:	429d      	cmp	r5, r3
 80a2e32:	bf08      	it	eq
 80a2e34:	4296      	cmpeq	r6, r2
 80a2e36:	f144 04fd 	adc.w	r4, r4, #253	; 0xfd
 80a2e3a:	f504 7440 	add.w	r4, r4, #768	; 0x300
 80a2e3e:	d202      	bcs.n	80a2e46 <__aeabi_ddiv+0x6e>
 80a2e40:	085b      	lsrs	r3, r3, #1
 80a2e42:	ea4f 0232 	mov.w	r2, r2, rrx
 80a2e46:	1ab6      	subs	r6, r6, r2
 80a2e48:	eb65 0503 	sbc.w	r5, r5, r3
 80a2e4c:	085b      	lsrs	r3, r3, #1
 80a2e4e:	ea4f 0232 	mov.w	r2, r2, rrx
 80a2e52:	f44f 1080 	mov.w	r0, #1048576	; 0x100000
 80a2e56:	f44f 2c00 	mov.w	ip, #524288	; 0x80000
 80a2e5a:	ebb6 0e02 	subs.w	lr, r6, r2
 80a2e5e:	eb75 0e03 	sbcs.w	lr, r5, r3
 80a2e62:	bf22      	ittt	cs
 80a2e64:	1ab6      	subcs	r6, r6, r2
 80a2e66:	4675      	movcs	r5, lr
 80a2e68:	ea40 000c 	orrcs.w	r0, r0, ip
 80a2e6c:	085b      	lsrs	r3, r3, #1
 80a2e6e:	ea4f 0232 	mov.w	r2, r2, rrx
 80a2e72:	ebb6 0e02 	subs.w	lr, r6, r2
 80a2e76:	eb75 0e03 	sbcs.w	lr, r5, r3
 80a2e7a:	bf22      	ittt	cs
 80a2e7c:	1ab6      	subcs	r6, r6, r2
 80a2e7e:	4675      	movcs	r5, lr
 80a2e80:	ea40 005c 	orrcs.w	r0, r0, ip, lsr #1
 80a2e84:	085b      	lsrs	r3, r3, #1
 80a2e86:	ea4f 0232 	mov.w	r2, r2, rrx
 80a2e8a:	ebb6 0e02 	subs.w	lr, r6, r2
 80a2e8e:	eb75 0e03 	sbcs.w	lr, r5, r3
 80a2e92:	bf22      	ittt	cs
 80a2e94:	1ab6      	subcs	r6, r6, r2
 80a2e96:	4675      	movcs	r5, lr
 80a2e98:	ea40 009c 	orrcs.w	r0, r0, ip, lsr #2
 80a2e9c:	085b      	lsrs	r3, r3, #1
 80a2e9e:	ea4f 0232 	mov.w	r2, r2, rrx
 80a2ea2:	ebb6 0e02 	subs.w	lr, r6, r2
 80a2ea6:	eb75 0e03 	sbcs.w	lr, r5, r3
 80a2eaa:	bf22      	ittt	cs
 80a2eac:	1ab6      	subcs	r6, r6, r2
 80a2eae:	4675      	movcs	r5, lr
 80a2eb0:	ea40 00dc 	orrcs.w	r0, r0, ip, lsr #3
 80a2eb4:	ea55 0e06 	orrs.w	lr, r5, r6
 80a2eb8:	d018      	beq.n	80a2eec <__aeabi_ddiv+0x114>
 80a2eba:	ea4f 1505 	mov.w	r5, r5, lsl #4
 80a2ebe:	ea45 7516 	orr.w	r5, r5, r6, lsr #28
 80a2ec2:	ea4f 1606 	mov.w	r6, r6, lsl #4
 80a2ec6:	ea4f 03c3 	mov.w	r3, r3, lsl #3
 80a2eca:	ea43 7352 	orr.w	r3, r3, r2, lsr #29
 80a2ece:	ea4f 02c2 	mov.w	r2, r2, lsl #3
 80a2ed2:	ea5f 1c1c 	movs.w	ip, ip, lsr #4
 80a2ed6:	d1c0      	bne.n	80a2e5a <__aeabi_ddiv+0x82>
 80a2ed8:	f411 1f80 	tst.w	r1, #1048576	; 0x100000
 80a2edc:	d10b      	bne.n	80a2ef6 <__aeabi_ddiv+0x11e>
 80a2ede:	ea41 0100 	orr.w	r1, r1, r0
 80a2ee2:	f04f 0000 	mov.w	r0, #0
 80a2ee6:	f04f 4c00 	mov.w	ip, #2147483648	; 0x80000000
 80a2eea:	e7b6      	b.n	80a2e5a <__aeabi_ddiv+0x82>
 80a2eec:	f411 1f80 	tst.w	r1, #1048576	; 0x100000
 80a2ef0:	bf04      	itt	eq
 80a2ef2:	4301      	orreq	r1, r0
 80a2ef4:	2000      	moveq	r0, #0
 80a2ef6:	f1b4 0cfd 	subs.w	ip, r4, #253	; 0xfd
 80a2efa:	bf88      	it	hi
 80a2efc:	f5bc 6fe0 	cmphi.w	ip, #1792	; 0x700
 80a2f00:	f63f aeaf 	bhi.w	80a2c62 <__aeabi_dmul+0xde>
 80a2f04:	ebb5 0c03 	subs.w	ip, r5, r3
 80a2f08:	bf04      	itt	eq
 80a2f0a:	ebb6 0c02 	subseq.w	ip, r6, r2
 80a2f0e:	ea5f 0c50 	movseq.w	ip, r0, lsr #1
 80a2f12:	f150 0000 	adcs.w	r0, r0, #0
 80a2f16:	eb41 5104 	adc.w	r1, r1, r4, lsl #20
 80a2f1a:	bd70      	pop	{r4, r5, r6, pc}
 80a2f1c:	f00e 4e00 	and.w	lr, lr, #2147483648	; 0x80000000
 80a2f20:	ea4e 3111 	orr.w	r1, lr, r1, lsr #12
 80a2f24:	eb14 045c 	adds.w	r4, r4, ip, lsr #1
 80a2f28:	bfc2      	ittt	gt
 80a2f2a:	ebd4 050c 	rsbsgt	r5, r4, ip
 80a2f2e:	ea41 5104 	orrgt.w	r1, r1, r4, lsl #20
 80a2f32:	bd70      	popgt	{r4, r5, r6, pc}
 80a2f34:	f441 1180 	orr.w	r1, r1, #1048576	; 0x100000
 80a2f38:	f04f 0e00 	mov.w	lr, #0
 80a2f3c:	3c01      	subs	r4, #1
 80a2f3e:	e690      	b.n	80a2c62 <__aeabi_dmul+0xde>
 80a2f40:	ea45 0e06 	orr.w	lr, r5, r6
 80a2f44:	e68d      	b.n	80a2c62 <__aeabi_dmul+0xde>
 80a2f46:	ea0c 5513 	and.w	r5, ip, r3, lsr #20
 80a2f4a:	ea94 0f0c 	teq	r4, ip
 80a2f4e:	bf08      	it	eq
 80a2f50:	ea95 0f0c 	teqeq	r5, ip
 80a2f54:	f43f af3b 	beq.w	80a2dce <__aeabi_dmul+0x24a>
 80a2f58:	ea94 0f0c 	teq	r4, ip
 80a2f5c:	d10a      	bne.n	80a2f74 <__aeabi_ddiv+0x19c>
 80a2f5e:	ea50 3401 	orrs.w	r4, r0, r1, lsl #12
 80a2f62:	f47f af34 	bne.w	80a2dce <__aeabi_dmul+0x24a>
 80a2f66:	ea95 0f0c 	teq	r5, ip
 80a2f6a:	f47f af25 	bne.w	80a2db8 <__aeabi_dmul+0x234>
 80a2f6e:	4610      	mov	r0, r2
 80a2f70:	4619      	mov	r1, r3
 80a2f72:	e72c      	b.n	80a2dce <__aeabi_dmul+0x24a>
 80a2f74:	ea95 0f0c 	teq	r5, ip
 80a2f78:	d106      	bne.n	80a2f88 <__aeabi_ddiv+0x1b0>
 80a2f7a:	ea52 3503 	orrs.w	r5, r2, r3, lsl #12
 80a2f7e:	f43f aefd 	beq.w	80a2d7c <__aeabi_dmul+0x1f8>
 80a2f82:	4610      	mov	r0, r2
 80a2f84:	4619      	mov	r1, r3
 80a2f86:	e722      	b.n	80a2dce <__aeabi_dmul+0x24a>
 80a2f88:	ea50 0641 	orrs.w	r6, r0, r1, lsl #1
 80a2f8c:	bf18      	it	ne
 80a2f8e:	ea52 0643 	orrsne.w	r6, r2, r3, lsl #1
 80a2f92:	f47f aec5 	bne.w	80a2d20 <__aeabi_dmul+0x19c>
 80a2f96:	ea50 0441 	orrs.w	r4, r0, r1, lsl #1
 80a2f9a:	f47f af0d 	bne.w	80a2db8 <__aeabi_dmul+0x234>
 80a2f9e:	ea52 0543 	orrs.w	r5, r2, r3, lsl #1
 80a2fa2:	f47f aeeb 	bne.w	80a2d7c <__aeabi_dmul+0x1f8>
 80a2fa6:	e712      	b.n	80a2dce <__aeabi_dmul+0x24a>

080a2fa8 <__gedf2>:
 80a2fa8:	f04f 3cff 	mov.w	ip, #4294967295
 80a2fac:	e006      	b.n	80a2fbc <__cmpdf2+0x4>
 80a2fae:	bf00      	nop

080a2fb0 <__ledf2>:
 80a2fb0:	f04f 0c01 	mov.w	ip, #1
 80a2fb4:	e002      	b.n	80a2fbc <__cmpdf2+0x4>
 80a2fb6:	bf00      	nop

080a2fb8 <__cmpdf2>:
 80a2fb8:	f04f 0c01 	mov.w	ip, #1
 80a2fbc:	f84d cd04 	str.w	ip, [sp, #-4]!
 80a2fc0:	ea4f 0c41 	mov.w	ip, r1, lsl #1
 80a2fc4:	ea7f 5c6c 	mvns.w	ip, ip, asr #21
 80a2fc8:	ea4f 0c43 	mov.w	ip, r3, lsl #1
 80a2fcc:	bf18      	it	ne
 80a2fce:	ea7f 5c6c 	mvnsne.w	ip, ip, asr #21
 80a2fd2:	d01b      	beq.n	80a300c <__cmpdf2+0x54>
 80a2fd4:	b001      	add	sp, #4
 80a2fd6:	ea50 0c41 	orrs.w	ip, r0, r1, lsl #1
 80a2fda:	bf0c      	ite	eq
 80a2fdc:	ea52 0c43 	orrseq.w	ip, r2, r3, lsl #1
 80a2fe0:	ea91 0f03 	teqne	r1, r3
 80a2fe4:	bf02      	ittt	eq
 80a2fe6:	ea90 0f02 	teqeq	r0, r2
 80a2fea:	2000      	moveq	r0, #0
 80a2fec:	4770      	bxeq	lr
 80a2fee:	f110 0f00 	cmn.w	r0, #0
 80a2ff2:	ea91 0f03 	teq	r1, r3
 80a2ff6:	bf58      	it	pl
 80a2ff8:	4299      	cmppl	r1, r3
 80a2ffa:	bf08      	it	eq
 80a2ffc:	4290      	cmpeq	r0, r2
 80a2ffe:	bf2c      	ite	cs
 80a3000:	17d8      	asrcs	r0, r3, #31
 80a3002:	ea6f 70e3 	mvncc.w	r0, r3, asr #31
 80a3006:	f040 0001 	orr.w	r0, r0, #1
 80a300a:	4770      	bx	lr
 80a300c:	ea4f 0c41 	mov.w	ip, r1, lsl #1
 80a3010:	ea7f 5c6c 	mvns.w	ip, ip, asr #21
 80a3014:	d102      	bne.n	80a301c <__cmpdf2+0x64>
 80a3016:	ea50 3c01 	orrs.w	ip, r0, r1, lsl #12
 80a301a:	d107      	bne.n	80a302c <__cmpdf2+0x74>
 80a301c:	ea4f 0c43 	mov.w	ip, r3, lsl #1
 80a3020:	ea7f 5c6c 	mvns.w	ip, ip, asr #21
 80a3024:	d1d6      	bne.n	80a2fd4 <__cmpdf2+0x1c>
 80a3026:	ea52 3c03 	orrs.w	ip, r2, r3, lsl #12
 80a302a:	d0d3      	beq.n	80a2fd4 <__cmpdf2+0x1c>
 80a302c:	f85d 0b04 	ldr.w	r0, [sp], #4
 80a3030:	4770      	bx	lr
 80a3032:	bf00      	nop

080a3034 <__aeabi_cdrcmple>:
 80a3034:	4684      	mov	ip, r0
 80a3036:	4610      	mov	r0, r2
 80a3038:	4662      	mov	r2, ip
 80a303a:	468c      	mov	ip, r1
 80a303c:	4619      	mov	r1, r3
 80a303e:	4663      	mov	r3, ip
 80a3040:	e000      	b.n	80a3044 <__aeabi_cdcmpeq>
 80a3042:	bf00      	nop

080a3044 <__aeabi_cdcmpeq>:
 80a3044:	b501      	push	{r0, lr}
 80a3046:	f7ff ffb7 	bl	80a2fb8 <__cmpdf2>
 80a304a:	2800      	cmp	r0, #0
 80a304c:	bf48      	it	mi
 80a304e:	f110 0f00 	cmnmi.w	r0, #0
 80a3052:	bd01      	pop	{r0, pc}

080a3054 <__aeabi_dcmpeq>:
 80a3054:	f84d ed08 	str.w	lr, [sp, #-8]!
 80a3058:	f7ff fff4 	bl	80a3044 <__aeabi_cdcmpeq>
 80a305c:	bf0c      	ite	eq
 80a305e:	2001      	moveq	r0, #1
 80a3060:	2000      	movne	r0, #0
 80a3062:	f85d fb08 	ldr.w	pc, [sp], #8
 80a3066:	bf00      	nop

080a3068 <__aeabi_dcmplt>:
 80a3068:	f84d ed08 	str.w	lr, [sp, #-8]!
 80a306c:	f7ff ffea 	bl	80a3044 <__aeabi_cdcmpeq>
 80a3070:	bf34      	ite	cc
 80a3072:	2001      	movcc	r0, #1
 80a3074:	2000      	movcs	r0, #0
 80a3076:	f85d fb08 	ldr.w	pc, [sp], #8
 80a307a:	bf00      	nop

080a307c <__aeabi_dcmple>:
 80a307c:	f84d ed08 	str.w	lr, [sp, #-8]!
 80a3080:	f7ff ffe0 	bl	80a3044 <__aeabi_cdcmpeq>
 80a3084:	bf94      	ite	ls
 80a3086:	2001      	movls	r0, #1
 80a3088:	2000      	movhi	r0, #0
 80a308a:	f85d fb08 	ldr.w	pc, [sp], #8
 80a308e:	bf00      	nop

080a3090 <__aeabi_dcmpge>:
 80a3090:	f84d ed08 	str.w	lr, [sp, #-8]!
 80a3094:	f7ff ffce 	bl	80a3034 <__aeabi_cdrcmple>
 80a3098:	bf94      	ite	ls
 80a309a:	2001      	movls	r0, #1
 80a309c:	2000      	movhi	r0, #0
 80a309e:	f85d fb08 	ldr.w	pc, [sp], #8
 80a30a2:	bf00      	nop

080a30a4 <__aeabi_dcmpgt>:
 80a30a4:	f84d ed08 	str.w	lr, [sp, #-8]!
 80a30a8:	f7ff ffc4 	bl	80a3034 <__aeabi_cdrcmple>
 80a30ac:	bf34      	ite	cc
 80a30ae:	2001      	movcc	r0, #1
 80a30b0:	2000      	movcs	r0, #0
 80a30b2:	f85d fb08 	ldr.w	pc, [sp], #8
 80a30b6:	bf00      	nop

080a30b8 <__aeabi_dcmpun>:
 80a30b8:	ea4f 0c41 	mov.w	ip, r1, lsl #1
 80a30bc:	ea7f 5c6c 	mvns.w	ip, ip, asr #21
 80a30c0:	d102      	bne.n	80a30c8 <__aeabi_dcmpun+0x10>
 80a30c2:	ea50 3c01 	orrs.w	ip, r0, r1, lsl #12
 80a30c6:	d10a      	bne.n	80a30de <__aeabi_dcmpun+0x26>
 80a30c8:	ea4f 0c43 	mov.w	ip, r3, lsl #1
 80a30cc:	ea7f 5c6c 	mvns.w	ip, ip, asr #21
 80a30d0:	d102      	bne.n	80a30d8 <__aeabi_dcmpun+0x20>
 80a30d2:	ea52 3c03 	orrs.w	ip, r2, r3, lsl #12
 80a30d6:	d102      	bne.n	80a30de <__aeabi_dcmpun+0x26>
 80a30d8:	f04f 0000 	mov.w	r0, #0
 80a30dc:	4770      	bx	lr
 80a30de:	f04f 0001 	mov.w	r0, #1
 80a30e2:	4770      	bx	lr

080a30e4 <__aeabi_d2iz>:
 80a30e4:	ea4f 0241 	mov.w	r2, r1, lsl #1
 80a30e8:	f512 1200 	adds.w	r2, r2, #2097152	; 0x200000
 80a30ec:	d215      	bcs.n	80a311a <__aeabi_d2iz+0x36>
 80a30ee:	d511      	bpl.n	80a3114 <__aeabi_d2iz+0x30>
 80a30f0:	f46f 7378 	mvn.w	r3, #992	; 0x3e0
 80a30f4:	ebb3 5262 	subs.w	r2, r3, r2, asr #21
 80a30f8:	d912      	bls.n	80a3120 <__aeabi_d2iz+0x3c>
 80a30fa:	ea4f 23c1 	mov.w	r3, r1, lsl #11
 80a30fe:	f043 4300 	orr.w	r3, r3, #2147483648	; 0x80000000
 80a3102:	ea43 5350 	orr.w	r3, r3, r0, lsr #21
 80a3106:	f011 4f00 	tst.w	r1, #2147483648	; 0x80000000
 80a310a:	fa23 f002 	lsr.w	r0, r3, r2
 80a310e:	bf18      	it	ne
 80a3110:	4240      	negne	r0, r0
 80a3112:	4770      	bx	lr
 80a3114:	f04f 0000 	mov.w	r0, #0
 80a3118:	4770      	bx	lr
 80a311a:	ea50 3001 	orrs.w	r0, r0, r1, lsl #12
 80a311e:	d105      	bne.n	80a312c <__aeabi_d2iz+0x48>
 80a3120:	f011 4000 	ands.w	r0, r1, #2147483648	; 0x80000000
 80a3124:	bf08      	it	eq
 80a3126:	f06f 4000 	mvneq.w	r0, #2147483648	; 0x80000000
 80a312a:	4770      	bx	lr
 80a312c:	f04f 0000 	mov.w	r0, #0
 80a3130:	4770      	bx	lr
 80a3132:	bf00      	nop

080a3134 <__aeabi_d2uiz>:
 80a3134:	004a      	lsls	r2, r1, #1
 80a3136:	d211      	bcs.n	80a315c <__aeabi_d2uiz+0x28>
 80a3138:	f512 1200 	adds.w	r2, r2, #2097152	; 0x200000
 80a313c:	d211      	bcs.n	80a3162 <__aeabi_d2uiz+0x2e>
 80a313e:	d50d      	bpl.n	80a315c <__aeabi_d2uiz+0x28>
 80a3140:	f46f 7378 	mvn.w	r3, #992	; 0x3e0
 80a3144:	ebb3 5262 	subs.w	r2, r3, r2, asr #21
 80a3148:	d40e      	bmi.n	80a3168 <__aeabi_d2uiz+0x34>
 80a314a:	ea4f 23c1 	mov.w	r3, r1, lsl #11
 80a314e:	f043 4300 	orr.w	r3, r3, #2147483648	; 0x80000000
 80a3152:	ea43 5350 	orr.w	r3, r3, r0, lsr #21
 80a3156:	fa23 f002 	lsr.w	r0, r3, r2
 80a315a:	4770      	bx	lr
 80a315c:	f04f 0000 	mov.w	r0, #0
 80a3160:	4770      	bx	lr
 80a3162:	ea50 3001 	orrs.w	r0, r0, r1, lsl #12
 80a3166:	d102      	bne.n	80a316e <__aeabi_d2uiz+0x3a>
 80a3168:	f04f 30ff 	mov.w	r0, #4294967295
 80a316c:	4770      	bx	lr
 80a316e:	f04f 0000 	mov.w	r0, #0
 80a3172:	4770      	bx	lr

080a3174 <__aeabi_d2f>:
 80a3174:	ea4f 0241 	mov.w	r2, r1, lsl #1
 80a3178:	f1b2 43e0 	subs.w	r3, r2, #1879048192	; 0x70000000
 80a317c:	bf24      	itt	cs
 80a317e:	f5b3 1c00 	subscs.w	ip, r3, #2097152	; 0x200000
 80a3182:	f1dc 5cfe 	rsbscs	ip, ip, #532676608	; 0x1fc00000
 80a3186:	d90d      	bls.n	80a31a4 <__aeabi_d2f+0x30>
 80a3188:	f001 4c00 	and.w	ip, r1, #2147483648	; 0x80000000
 80a318c:	ea4f 02c0 	mov.w	r2, r0, lsl #3
 80a3190:	ea4c 7050 	orr.w	r0, ip, r0, lsr #29
 80a3194:	f1b2 4f00 	cmp.w	r2, #2147483648	; 0x80000000
 80a3198:	eb40 0083 	adc.w	r0, r0, r3, lsl #2
 80a319c:	bf08      	it	eq
 80a319e:	f020 0001 	biceq.w	r0, r0, #1
 80a31a2:	4770      	bx	lr
 80a31a4:	f011 4f80 	tst.w	r1, #1073741824	; 0x40000000
 80a31a8:	d121      	bne.n	80a31ee <__aeabi_d2f+0x7a>
 80a31aa:	f113 7238 	adds.w	r2, r3, #48234496	; 0x2e00000
 80a31ae:	bfbc      	itt	lt
 80a31b0:	f001 4000 	andlt.w	r0, r1, #2147483648	; 0x80000000
 80a31b4:	4770      	bxlt	lr
 80a31b6:	f441 1180 	orr.w	r1, r1, #1048576	; 0x100000
 80a31ba:	ea4f 5252 	mov.w	r2, r2, lsr #21
 80a31be:	f1c2 0218 	rsb	r2, r2, #24
 80a31c2:	f1c2 0c20 	rsb	ip, r2, #32
 80a31c6:	fa10 f30c 	lsls.w	r3, r0, ip
 80a31ca:	fa20 f002 	lsr.w	r0, r0, r2
 80a31ce:	bf18      	it	ne
 80a31d0:	f040 0001 	orrne.w	r0, r0, #1
 80a31d4:	ea4f 23c1 	mov.w	r3, r1, lsl #11
 80a31d8:	ea4f 23d3 	mov.w	r3, r3, lsr #11
 80a31dc:	fa03 fc0c 	lsl.w	ip, r3, ip
 80a31e0:	ea40 000c 	orr.w	r0, r0, ip
 80a31e4:	fa23 f302 	lsr.w	r3, r3, r2
 80a31e8:	ea4f 0343 	mov.w	r3, r3, lsl #1
 80a31ec:	e7cc      	b.n	80a3188 <__aeabi_d2f+0x14>
 80a31ee:	ea7f 5362 	mvns.w	r3, r2, asr #21
 80a31f2:	d107      	bne.n	80a3204 <__aeabi_d2f+0x90>
 80a31f4:	ea50 3301 	orrs.w	r3, r0, r1, lsl #12
 80a31f8:	bf1e      	ittt	ne
 80a31fa:	f04f 40fe 	movne.w	r0, #2130706432	; 0x7f000000
 80a31fe:	f440 0040 	orrne.w	r0, r0, #12582912	; 0xc00000
 80a3202:	4770      	bxne	lr
 80a3204:	f001 4000 	and.w	r0, r1, #2147483648	; 0x80000000
 80a3208:	f040 40fe 	orr.w	r0, r0, #2130706432	; 0x7f000000
 80a320c:	f440 0000 	orr.w	r0, r0, #8388608	; 0x800000
 80a3210:	4770      	bx	lr
 80a3212:	bf00      	nop

080a3214 <__aeabi_frsub>:
 80a3214:	f080 4000 	eor.w	r0, r0, #2147483648	; 0x80000000
 80a3218:	e002      	b.n	80a3220 <__addsf3>
 80a321a:	bf00      	nop

080a321c <__aeabi_fsub>:
 80a321c:	f081 4100 	eor.w	r1, r1, #2147483648	; 0x80000000

080a3220 <__addsf3>:
 80a3220:	0042      	lsls	r2, r0, #1
 80a3222:	bf1f      	itttt	ne
 80a3224:	ea5f 0341 	movsne.w	r3, r1, lsl #1
 80a3228:	ea92 0f03 	teqne	r2, r3
 80a322c:	ea7f 6c22 	mvnsne.w	ip, r2, asr #24
 80a3230:	ea7f 6c23 	mvnsne.w	ip, r3, asr #24
 80a3234:	d06a      	beq.n	80a330c <__addsf3+0xec>
 80a3236:	ea4f 6212 	mov.w	r2, r2, lsr #24
 80a323a:	ebd2 6313 	rsbs	r3, r2, r3, lsr #24
 80a323e:	bfc1      	itttt	gt
 80a3240:	18d2      	addgt	r2, r2, r3
 80a3242:	4041      	eorgt	r1, r0
 80a3244:	4048      	eorgt	r0, r1
 80a3246:	4041      	eorgt	r1, r0
 80a3248:	bfb8      	it	lt
 80a324a:	425b      	neglt	r3, r3
 80a324c:	2b19      	cmp	r3, #25
 80a324e:	bf88      	it	hi
 80a3250:	4770      	bxhi	lr
 80a3252:	f010 4f00 	tst.w	r0, #2147483648	; 0x80000000
 80a3256:	f440 0000 	orr.w	r0, r0, #8388608	; 0x800000
 80a325a:	f020 407f 	bic.w	r0, r0, #4278190080	; 0xff000000
 80a325e:	bf18      	it	ne
 80a3260:	4240      	negne	r0, r0
 80a3262:	f011 4f00 	tst.w	r1, #2147483648	; 0x80000000
 80a3266:	f441 0100 	orr.w	r1, r1, #8388608	; 0x800000
 80a326a:	f021 417f 	bic.w	r1, r1, #4278190080	; 0xff000000
 80a326e:	bf18      	it	ne
 80a3270:	4249      	negne	r1, r1
 80a3272:	ea92 0f03 	teq	r2, r3
 80a3276:	d03f      	beq.n	80a32f8 <__addsf3+0xd8>
 80a3278:	f1a2 0201 	sub.w	r2, r2, #1
 80a327c:	fa41 fc03 	asr.w	ip, r1, r3
 80a3280:	eb10 000c 	adds.w	r0, r0, ip
 80a3284:	f1c3 0320 	rsb	r3, r3, #32
 80a3288:	fa01 f103 	lsl.w	r1, r1, r3
 80a328c:	f000 4300 	and.w	r3, r0, #2147483648	; 0x80000000
 80a3290:	d502      	bpl.n	80a3298 <__addsf3+0x78>
 80a3292:	4249      	negs	r1, r1
 80a3294:	eb60 0040 	sbc.w	r0, r0, r0, lsl #1
 80a3298:	f5b0 0f00 	cmp.w	r0, #8388608	; 0x800000
 80a329c:	d313      	bcc.n	80a32c6 <__addsf3+0xa6>
 80a329e:	f1b0 7f80 	cmp.w	r0, #16777216	; 0x1000000
 80a32a2:	d306      	bcc.n	80a32b2 <__addsf3+0x92>
 80a32a4:	0840      	lsrs	r0, r0, #1
 80a32a6:	ea4f 0131 	mov.w	r1, r1, rrx
 80a32aa:	f102 0201 	add.w	r2, r2, #1
 80a32ae:	2afe      	cmp	r2, #254	; 0xfe
 80a32b0:	d251      	bcs.n	80a3356 <__addsf3+0x136>
 80a32b2:	f1b1 4f00 	cmp.w	r1, #2147483648	; 0x80000000
 80a32b6:	eb40 50c2 	adc.w	r0, r0, r2, lsl #23
 80a32ba:	bf08      	it	eq
 80a32bc:	f020 0001 	biceq.w	r0, r0, #1
 80a32c0:	ea40 0003 	orr.w	r0, r0, r3
 80a32c4:	4770      	bx	lr
 80a32c6:	0049      	lsls	r1, r1, #1
 80a32c8:	eb40 0000 	adc.w	r0, r0, r0
 80a32cc:	3a01      	subs	r2, #1
 80a32ce:	bf28      	it	cs
 80a32d0:	f5b0 0f00 	cmpcs.w	r0, #8388608	; 0x800000
 80a32d4:	d2ed      	bcs.n	80a32b2 <__addsf3+0x92>
 80a32d6:	fab0 fc80 	clz	ip, r0
 80a32da:	f1ac 0c08 	sub.w	ip, ip, #8
 80a32de:	ebb2 020c 	subs.w	r2, r2, ip
 80a32e2:	fa00 f00c 	lsl.w	r0, r0, ip
 80a32e6:	bfaa      	itet	ge
 80a32e8:	eb00 50c2 	addge.w	r0, r0, r2, lsl #23
 80a32ec:	4252      	neglt	r2, r2
 80a32ee:	4318      	orrge	r0, r3
 80a32f0:	bfbc      	itt	lt
 80a32f2:	40d0      	lsrlt	r0, r2
 80a32f4:	4318      	orrlt	r0, r3
 80a32f6:	4770      	bx	lr
 80a32f8:	f092 0f00 	teq	r2, #0
 80a32fc:	f481 0100 	eor.w	r1, r1, #8388608	; 0x800000
 80a3300:	bf06      	itte	eq
 80a3302:	f480 0000 	eoreq.w	r0, r0, #8388608	; 0x800000
 80a3306:	3201      	addeq	r2, #1
 80a3308:	3b01      	subne	r3, #1
 80a330a:	e7b5      	b.n	80a3278 <__addsf3+0x58>
 80a330c:	ea4f 0341 	mov.w	r3, r1, lsl #1
 80a3310:	ea7f 6c22 	mvns.w	ip, r2, asr #24
 80a3314:	bf18      	it	ne
 80a3316:	ea7f 6c23 	mvnsne.w	ip, r3, asr #24
 80a331a:	d021      	beq.n	80a3360 <__addsf3+0x140>
 80a331c:	ea92 0f03 	teq	r2, r3
 80a3320:	d004      	beq.n	80a332c <__addsf3+0x10c>
 80a3322:	f092 0f00 	teq	r2, #0
 80a3326:	bf08      	it	eq
 80a3328:	4608      	moveq	r0, r1
 80a332a:	4770      	bx	lr
 80a332c:	ea90 0f01 	teq	r0, r1
 80a3330:	bf1c      	itt	ne
 80a3332:	2000      	movne	r0, #0
 80a3334:	4770      	bxne	lr
 80a3336:	f012 4f7f 	tst.w	r2, #4278190080	; 0xff000000
 80a333a:	d104      	bne.n	80a3346 <__addsf3+0x126>
 80a333c:	0040      	lsls	r0, r0, #1
 80a333e:	bf28      	it	cs
 80a3340:	f040 4000 	orrcs.w	r0, r0, #2147483648	; 0x80000000
 80a3344:	4770      	bx	lr
 80a3346:	f112 7200 	adds.w	r2, r2, #33554432	; 0x2000000
 80a334a:	bf3c      	itt	cc
 80a334c:	f500 0000 	addcc.w	r0, r0, #8388608	; 0x800000
 80a3350:	4770      	bxcc	lr
 80a3352:	f000 4300 	and.w	r3, r0, #2147483648	; 0x80000000
 80a3356:	f043 40fe 	orr.w	r0, r3, #2130706432	; 0x7f000000
 80a335a:	f440 0000 	orr.w	r0, r0, #8388608	; 0x800000
 80a335e:	4770      	bx	lr
 80a3360:	ea7f 6222 	mvns.w	r2, r2, asr #24
 80a3364:	bf16      	itet	ne
 80a3366:	4608      	movne	r0, r1
 80a3368:	ea7f 6323 	mvnseq.w	r3, r3, asr #24
 80a336c:	4601      	movne	r1, r0
 80a336e:	0242      	lsls	r2, r0, #9
 80a3370:	bf06      	itte	eq
 80a3372:	ea5f 2341 	movseq.w	r3, r1, lsl #9
 80a3376:	ea90 0f01 	teqeq	r0, r1
 80a337a:	f440 0080 	orrne.w	r0, r0, #4194304	; 0x400000
 80a337e:	4770      	bx	lr

080a3380 <__aeabi_ui2f>:
 80a3380:	f04f 0300 	mov.w	r3, #0
 80a3384:	e004      	b.n	80a3390 <__aeabi_i2f+0x8>
 80a3386:	bf00      	nop

080a3388 <__aeabi_i2f>:
 80a3388:	f010 4300 	ands.w	r3, r0, #2147483648	; 0x80000000
 80a338c:	bf48      	it	mi
 80a338e:	4240      	negmi	r0, r0
 80a3390:	ea5f 0c00 	movs.w	ip, r0
 80a3394:	bf08      	it	eq
 80a3396:	4770      	bxeq	lr
 80a3398:	f043 4396 	orr.w	r3, r3, #1258291200	; 0x4b000000
 80a339c:	4601      	mov	r1, r0
 80a339e:	f04f 0000 	mov.w	r0, #0
 80a33a2:	e01c      	b.n	80a33de <__aeabi_l2f+0x2a>

080a33a4 <__aeabi_ul2f>:
 80a33a4:	ea50 0201 	orrs.w	r2, r0, r1
 80a33a8:	bf08      	it	eq
 80a33aa:	4770      	bxeq	lr
 80a33ac:	f04f 0300 	mov.w	r3, #0
 80a33b0:	e00a      	b.n	80a33c8 <__aeabi_l2f+0x14>
 80a33b2:	bf00      	nop

080a33b4 <__aeabi_l2f>:
 80a33b4:	ea50 0201 	orrs.w	r2, r0, r1
 80a33b8:	bf08      	it	eq
 80a33ba:	4770      	bxeq	lr
 80a33bc:	f011 4300 	ands.w	r3, r1, #2147483648	; 0x80000000
 80a33c0:	d502      	bpl.n	80a33c8 <__aeabi_l2f+0x14>
 80a33c2:	4240      	negs	r0, r0
 80a33c4:	eb61 0141 	sbc.w	r1, r1, r1, lsl #1
 80a33c8:	ea5f 0c01 	movs.w	ip, r1
 80a33cc:	bf02      	ittt	eq
 80a33ce:	4684      	moveq	ip, r0
 80a33d0:	4601      	moveq	r1, r0
 80a33d2:	2000      	moveq	r0, #0
 80a33d4:	f043 43b6 	orr.w	r3, r3, #1526726656	; 0x5b000000
 80a33d8:	bf08      	it	eq
 80a33da:	f1a3 5380 	subeq.w	r3, r3, #268435456	; 0x10000000
 80a33de:	f5a3 0300 	sub.w	r3, r3, #8388608	; 0x800000
 80a33e2:	fabc f28c 	clz	r2, ip
 80a33e6:	3a08      	subs	r2, #8
 80a33e8:	eba3 53c2 	sub.w	r3, r3, r2, lsl #23
 80a33ec:	db10      	blt.n	80a3410 <__aeabi_l2f+0x5c>
 80a33ee:	fa01 fc02 	lsl.w	ip, r1, r2
 80a33f2:	4463      	add	r3, ip
 80a33f4:	fa00 fc02 	lsl.w	ip, r0, r2
 80a33f8:	f1c2 0220 	rsb	r2, r2, #32
 80a33fc:	f1bc 4f00 	cmp.w	ip, #2147483648	; 0x80000000
 80a3400:	fa20 f202 	lsr.w	r2, r0, r2
 80a3404:	eb43 0002 	adc.w	r0, r3, r2
 80a3408:	bf08      	it	eq
 80a340a:	f020 0001 	biceq.w	r0, r0, #1
 80a340e:	4770      	bx	lr
 80a3410:	f102 0220 	add.w	r2, r2, #32
 80a3414:	fa01 fc02 	lsl.w	ip, r1, r2
 80a3418:	f1c2 0220 	rsb	r2, r2, #32
 80a341c:	ea50 004c 	orrs.w	r0, r0, ip, lsl #1
 80a3420:	fa21 f202 	lsr.w	r2, r1, r2
 80a3424:	eb43 0002 	adc.w	r0, r3, r2
 80a3428:	bf08      	it	eq
 80a342a:	ea20 70dc 	biceq.w	r0, r0, ip, lsr #31
 80a342e:	4770      	bx	lr

080a3430 <atexit>:
 80a3430:	2300      	movs	r3, #0
 80a3432:	4601      	mov	r1, r0
 80a3434:	461a      	mov	r2, r3
 80a3436:	4618      	mov	r0, r3
 80a3438:	f000 b84c 	b.w	80a34d4 <__register_exitproc>

080a343c <memcpy>:
 80a343c:	440a      	add	r2, r1
 80a343e:	4291      	cmp	r1, r2
 80a3440:	f100 33ff 	add.w	r3, r0, #4294967295
 80a3444:	d100      	bne.n	80a3448 <memcpy+0xc>
 80a3446:	4770      	bx	lr
 80a3448:	b510      	push	{r4, lr}
 80a344a:	f811 4b01 	ldrb.w	r4, [r1], #1
 80a344e:	4291      	cmp	r1, r2
 80a3450:	f803 4f01 	strb.w	r4, [r3, #1]!
 80a3454:	d1f9      	bne.n	80a344a <memcpy+0xe>
 80a3456:	bd10      	pop	{r4, pc}

080a3458 <memset>:
 80a3458:	4603      	mov	r3, r0
 80a345a:	4402      	add	r2, r0
 80a345c:	4293      	cmp	r3, r2
 80a345e:	d100      	bne.n	80a3462 <memset+0xa>
 80a3460:	4770      	bx	lr
 80a3462:	f803 1b01 	strb.w	r1, [r3], #1
 80a3466:	e7f9      	b.n	80a345c <memset+0x4>

080a3468 <srand>:
 80a3468:	b538      	push	{r3, r4, r5, lr}
 80a346a:	4b10      	ldr	r3, [pc, #64]	; (80a34ac <srand+0x44>)
 80a346c:	4604      	mov	r4, r0
 80a346e:	681d      	ldr	r5, [r3, #0]
 80a3470:	6bab      	ldr	r3, [r5, #56]	; 0x38
 80a3472:	b9b3      	cbnz	r3, 80a34a2 <srand+0x3a>
 80a3474:	2018      	movs	r0, #24
 80a3476:	f7fe fbc1 	bl	80a1bfc <malloc>
 80a347a:	4602      	mov	r2, r0
 80a347c:	63a8      	str	r0, [r5, #56]	; 0x38
 80a347e:	b920      	cbnz	r0, 80a348a <srand+0x22>
 80a3480:	2142      	movs	r1, #66	; 0x42
 80a3482:	4b0b      	ldr	r3, [pc, #44]	; (80a34b0 <srand+0x48>)
 80a3484:	480b      	ldr	r0, [pc, #44]	; (80a34b4 <srand+0x4c>)
 80a3486:	f7fe fbc9 	bl	80a1c1c <__assert_func>
 80a348a:	490b      	ldr	r1, [pc, #44]	; (80a34b8 <srand+0x50>)
 80a348c:	4b0b      	ldr	r3, [pc, #44]	; (80a34bc <srand+0x54>)
 80a348e:	e9c0 1300 	strd	r1, r3, [r0]
 80a3492:	4b0b      	ldr	r3, [pc, #44]	; (80a34c0 <srand+0x58>)
 80a3494:	2100      	movs	r1, #0
 80a3496:	6083      	str	r3, [r0, #8]
 80a3498:	230b      	movs	r3, #11
 80a349a:	8183      	strh	r3, [r0, #12]
 80a349c:	2001      	movs	r0, #1
 80a349e:	e9c2 0104 	strd	r0, r1, [r2, #16]
 80a34a2:	2200      	movs	r2, #0
 80a34a4:	6bab      	ldr	r3, [r5, #56]	; 0x38
 80a34a6:	611c      	str	r4, [r3, #16]
 80a34a8:	615a      	str	r2, [r3, #20]
 80a34aa:	bd38      	pop	{r3, r4, r5, pc}
 80a34ac:	20000008 	.word	0x20000008
 80a34b0:	080a3771 	.word	0x080a3771
 80a34b4:	080a3788 	.word	0x080a3788
 80a34b8:	abcd330e 	.word	0xabcd330e
 80a34bc:	e66d1234 	.word	0xe66d1234
 80a34c0:	0005deec 	.word	0x0005deec

080a34c4 <strlen>:
 80a34c4:	4603      	mov	r3, r0
 80a34c6:	f813 2b01 	ldrb.w	r2, [r3], #1
 80a34ca:	2a00      	cmp	r2, #0
 80a34cc:	d1fb      	bne.n	80a34c6 <strlen+0x2>
 80a34ce:	1a18      	subs	r0, r3, r0
 80a34d0:	3801      	subs	r0, #1
 80a34d2:	4770      	bx	lr

080a34d4 <__register_exitproc>:
 80a34d4:	e92d 43f8 	stmdb	sp!, {r3, r4, r5, r6, r7, r8, r9, lr}
 80a34d8:	f8df 80ac 	ldr.w	r8, [pc, #172]	; 80a3588 <__register_exitproc+0xb4>
 80a34dc:	4606      	mov	r6, r0
 80a34de:	f8d8 0000 	ldr.w	r0, [r8]
 80a34e2:	461f      	mov	r7, r3
 80a34e4:	460d      	mov	r5, r1
 80a34e6:	4691      	mov	r9, r2
 80a34e8:	f000 f858 	bl	80a359c <__retarget_lock_acquire_recursive>
 80a34ec:	4b27      	ldr	r3, [pc, #156]	; (80a358c <__register_exitproc+0xb8>)
 80a34ee:	681c      	ldr	r4, [r3, #0]
 80a34f0:	b934      	cbnz	r4, 80a3500 <__register_exitproc+0x2c>
 80a34f2:	4c27      	ldr	r4, [pc, #156]	; (80a3590 <__register_exitproc+0xbc>)
 80a34f4:	601c      	str	r4, [r3, #0]
 80a34f6:	4b27      	ldr	r3, [pc, #156]	; (80a3594 <__register_exitproc+0xc0>)
 80a34f8:	b113      	cbz	r3, 80a3500 <__register_exitproc+0x2c>
 80a34fa:	681b      	ldr	r3, [r3, #0]
 80a34fc:	f8c4 3088 	str.w	r3, [r4, #136]	; 0x88
 80a3500:	6863      	ldr	r3, [r4, #4]
 80a3502:	2b1f      	cmp	r3, #31
 80a3504:	dd07      	ble.n	80a3516 <__register_exitproc+0x42>
 80a3506:	f8d8 0000 	ldr.w	r0, [r8]
 80a350a:	f000 f849 	bl	80a35a0 <__retarget_lock_release_recursive>
 80a350e:	f04f 30ff 	mov.w	r0, #4294967295
 80a3512:	e8bd 83f8 	ldmia.w	sp!, {r3, r4, r5, r6, r7, r8, r9, pc}
 80a3516:	b35e      	cbz	r6, 80a3570 <__register_exitproc+0x9c>
 80a3518:	f8d4 0088 	ldr.w	r0, [r4, #136]	; 0x88
 80a351c:	b988      	cbnz	r0, 80a3542 <__register_exitproc+0x6e>
 80a351e:	4b1e      	ldr	r3, [pc, #120]	; (80a3598 <__register_exitproc+0xc4>)
 80a3520:	b923      	cbnz	r3, 80a352c <__register_exitproc+0x58>
 80a3522:	f8d8 0000 	ldr.w	r0, [r8]
 80a3526:	f000 f83a 	bl	80a359e <__retarget_lock_release>
 80a352a:	e7f0      	b.n	80a350e <__register_exitproc+0x3a>
 80a352c:	f44f 7084 	mov.w	r0, #264	; 0x108
 80a3530:	f7fe fb64 	bl	80a1bfc <malloc>
 80a3534:	2800      	cmp	r0, #0
 80a3536:	d0f4      	beq.n	80a3522 <__register_exitproc+0x4e>
 80a3538:	2300      	movs	r3, #0
 80a353a:	e9c0 3340 	strd	r3, r3, [r0, #256]	; 0x100
 80a353e:	f8c4 0088 	str.w	r0, [r4, #136]	; 0x88
 80a3542:	2201      	movs	r2, #1
 80a3544:	6863      	ldr	r3, [r4, #4]
 80a3546:	2e02      	cmp	r6, #2
 80a3548:	f840 9023 	str.w	r9, [r0, r3, lsl #2]
 80a354c:	fa02 f203 	lsl.w	r2, r2, r3
 80a3550:	eb00 0183 	add.w	r1, r0, r3, lsl #2
 80a3554:	f8d0 3100 	ldr.w	r3, [r0, #256]	; 0x100
 80a3558:	ea43 0302 	orr.w	r3, r3, r2
 80a355c:	f8c0 3100 	str.w	r3, [r0, #256]	; 0x100
 80a3560:	f8c1 7080 	str.w	r7, [r1, #128]	; 0x80
 80a3564:	bf02      	ittt	eq
 80a3566:	f8d0 3104 	ldreq.w	r3, [r0, #260]	; 0x104
 80a356a:	4313      	orreq	r3, r2
 80a356c:	f8c0 3104 	streq.w	r3, [r0, #260]	; 0x104
 80a3570:	6863      	ldr	r3, [r4, #4]
 80a3572:	f8d8 0000 	ldr.w	r0, [r8]
 80a3576:	1c5a      	adds	r2, r3, #1
 80a3578:	3302      	adds	r3, #2
 80a357a:	6062      	str	r2, [r4, #4]
 80a357c:	f844 5023 	str.w	r5, [r4, r3, lsl #2]
 80a3580:	f000 f80e 	bl	80a35a0 <__retarget_lock_release_recursive>
 80a3584:	2000      	movs	r0, #0
 80a3586:	e7c4      	b.n	80a3512 <__register_exitproc+0x3e>
 80a3588:	2000006c 	.word	0x2000006c
 80a358c:	20000510 	.word	0x20000510
 80a3590:	20000484 	.word	0x20000484
 80a3594:	00000000 	.word	0x00000000
 80a3598:	080a1bfd 	.word	0x080a1bfd

080a359c <__retarget_lock_acquire_recursive>:
 80a359c:	4770      	bx	lr

080a359e <__retarget_lock_release>:
 80a359e:	4770      	bx	lr

080a35a0 <__retarget_lock_release_recursive>:
 80a35a0:	4770      	bx	lr

080a35a2 <link_code_end>:
	...

080a35a4 <dynalib_user>:
 80a35a4:	0021 080a 0061 080a 0089 080a 008d 080a     !...a...........
 80a35b4:	0000 0000 5050 004d 514d 322d 5320 6e65     ....PPM.MQ-2 Sen
 80a35c4:	6f73 2072 6144 6174 0a3a 5200 7761 5620     sor Data:..Raw V
 80a35d4:	6c61 6575 203a 5600 6c6f 6174 6567 203a     alue: .Voltage: 
 80a35e4:	2000 0056 5050 3a4d 0020 7020 6d70 4200     . V.PPM: . ppm.B
 80a35f4:	7475 6f74 206e 7270 7365 0073               utton press.

080a3600 <CSWTCH.215>:
 80a3600:	012c 0000 0018 0000 01f4 0000 012c 0000     ,...........,...
 80a3610:	0050 0000                                   P...

080a3614 <_ZTV7rgb_lcd>:
	...
 80a361c:	1669 080a 166b 080a 16ab 080a 1c81 080a     i...k...........
 80a362c:	616e 006e 6e69 0066 766f 0066 002e 7061     nan.inf.ovf...ap
 80a363c:	0070 5925 252d 2d6d 6425 2554 3a48 4d25     p.%Y-%m-%dT%H:%M
 80a364c:	253a 2553 007a 7361 7463 6d69 0065 0000     :%S%z.asctime...

080a365c <_ZTV9IPAddress>:
	...
 80a3664:	207f 080a 207d 080a 20b1 080a               . ..} ... ..

080a3670 <_ZTV9USBSerial>:
	...
 80a3678:	214b 080a 21b1 080a 2189 080a 1c81 080a     K!...!...!......
 80a3688:	217b 080a 214d 080a 215d 080a 21ab 080a     {!..M!..]!...!..
 80a3698:	216d 080a 2145 080a                         m!..E!..

080a36a0 <_ZTV11USARTSerial>:
	...
 80a36a8:	22d9 080a 2341 080a 231d 080a 1c81 080a     ."..A#...#......
 80a36b8:	22ed 080a 2309 080a 22fb 080a 2317 080a     ."...#..."...#..
 80a36c8:	22db 080a 22df 080a                         ."..."..

080a36d0 <_ZTV7TwoWire>:
	...
 80a36d8:	2379 080a 23c3 080a 239b 080a 237b 080a     y#...#...#..{#..
 80a36e8:	23a3 080a 23ab 080a 23b3 080a 23bb 080a     .#...#...#...#..

080a36f8 <_ZTVN5spark9WiFiClassE>:
	...
 80a3700:	24bf 080a 24b5 080a 24ab 080a 241d 080a     .$...$...$...$..
 80a3710:	249f 080a 2493 080a 251d 080a 2525 080a     .$...$...%..%%..
 80a3720:	2487 080a 247f 080a 2475 080a 246b 080a     .$...$..u$..k$..
 80a3730:	2427 080a                                   '$..

080a3734 <_ZTVN5spark12NetworkClassE>:
	...
 80a373c:	24dd 080a 24e7 080a 24f1 080a 24fb 080a     .$...$...$...$..
 80a374c:	2505 080a 2511 080a 251d 080a 2525 080a     .%...%...%..%%..
 80a375c:	252d 080a 2539 080a 2541 080a 254b 080a     -%..9%..A%..K%..
 80a376c:	2555 080a                                   U%..

080a3770 <_ZSt7nothrow>:
 80a3770:	5200 4545 544e 6d20 6c61 6f6c 2063 7573     .REENT malloc su
 80a3780:	6363 6565 6564 0064 6d2f 746e 772f 726f     cceeded./mnt/wor
 80a3790:	736b 6170 6563 772f 726f 736b 6170 6563     kspace/workspace
 80a37a0:	472f 4343 312d 2d30 6970 6570 696c 656e     /GCC-10-pipeline
 80a37b0:	6a2f 6e65 696b 736e 472d 4343 312d 2d30     /jenkins-GCC-10-
 80a37c0:	6970 6570 696c 656e 342d 5f38 3032 3032     pipeline-48_2020
 80a37d0:	3131 3432 315f 3036 3136 3038 3436 2f31     1124_1606180641/
 80a37e0:	7273 2f63 656e 6c77 6269 6e2f 7765 696c     src/newlib/newli
 80a37f0:	2f62 696c 6362 732f 6474 696c 2f62 6172     b/libc/stdlib/ra
 80a3800:	646e 632e                                    nd.c.

080a3805 <link_const_variable_data_end>:
 80a3805:	00          	.byte	0x00
	...

080a3808 <link_constructors_location>:
 80a3808:	080a03ad 	.word	0x080a03ad
 80a380c:	080a1659 	.word	0x080a1659
 80a3810:	080a1c5d 	.word	0x080a1c5d
 80a3814:	080a1ee5 	.word	0x080a1ee5
 80a3818:	080a1ef5 	.word	0x080a1ef5
 80a381c:	080a1f11 	.word	0x080a1f11
 80a3820:	080a24c9 	.word	0x080a24c9
 80a3824:	080a25a5 	.word	0x080a25a5
 80a3828:	080a2775 	.word	0x080a2775

080a382c <link_constructors_end>:
 80a382c:	00000000 	.word	0x00000000
